id	item_group_id	title	description	link	image_link	additional_image_link	price	sale_price	sale_price_effective_date	availability	shipping_weight	brand	mpn	condition	product_type	google_product_category	identifier_exists	is_bundle	shipping	upc	gtin	sku
10004	 	4-in-1 Liquid Foundation	How long can you go without a touchup? A few hours? Until lunchtime? With PÜR's 4-in-1 Liquid Foundation with SPF 15, you get hours of uninterrupted complexion perfection. Lightweight and oil-free, this dermatologist-tested formula offers all-day true color that won't smudge, rub off or fade. Enriched with age-defying Ceretin Complex, this foundation revelation draws vital moisture to the skin for a look so flawlessly fresh you might forget you're wearing makeup.	https://www.purcosmetics.com/4-in-1-liquid-foundation?utm_source=google_shopping	https://www.purcosmetics.com/media/catalog/product/4/-/4-in-1-liquid-foundation-light-cap-on.jpg	https://www.purcosmetics.com/media/catalog/product/4/-/4-in-1-liquid-foundation-deeper-cap-on.jpg,https://www.purcosmetics.com/media/catalog/product/4/-/4-in-1-liquid-foundation-tan-cap-on.jpg,https://www.purcosmetics.com/media/catalog/product/4/-/4-in-1-liquid-foundation-deep-cap-on.jpg,https://www.purcosmetics.com/media/catalog/product/4/-/4-in-1-liquid-foundation-light-tan-cap-on.jpg,https://www.purcosmetics.com/media/catalog/product/4/-/4-in-1-liquid-foundation-golden-dark-cap-on.jpg,https://www.purcosmetics.com/media/catalog/product/4/-/4-in-1-liquid-foundation-golden-medium-cap-on.jpg,https://www.purcosmetics.com/media/catalog/product/4/-/4-in-1-liquid-foundation-medium-dark-cap-on.jpg,https://www.purcosmetics.com/media/catalog/product/4/-/4-in-1-liquid-foundation-blush-medium-cap-on.jpg,https://www.purcosmetics.com/media/catalog/product/4/-/4-in-1-liquid-foundation-deeper-cap-off-to-side_1.jpg	36.00 USD	 	 	in stock	0.29 lb	Pur Cosmetics	10004	new	Pur Category > Makeup > Face > Foundation,Pur Category > Makeup > Best Sellers,Pur Category > Makeup > Face	 	 	FALSE	 	 	 	10004
951227060	10004	4-in-1 Liquid Foundation in Tan	How long can you go without a touchup? A few hours? Until lunchtime? With PÜR's 4-in-1 Liquid Foundation with SPF 15, you get hours of uninterrupted complexion perfection. Lightweight and oil-free, this dermatologist-tested formula offers all-day true color that won't smudge, rub off or fade. Enriched with age-defying Ceretin Complex, this foundation revelation draws vital moisture to the skin for a look so flawlessly fresh you might forget you're wearing makeup.	https://www.purcosmetics.com/4-in-1-liquid-foundation?utm_source=google_shopping	https://www.purcosmetics.com/media/catalog/product/4/-/4-in-1-liquid-foundation-tan-cap-on.jpg	https://www.purcosmetics.com/media/catalog/product/4/-/4-in-1-liquid-foundation-tan-swatch.jpg	36.00 USD	 	 	in stock	0.29 lb	Pur Cosmetics	951227060	new	Pur Category > Makeup > Face > Foundation,Pur Category > Makeup > Best Sellers,Pur Category > Makeup > Face	 	 	FALSE	 	847137002893	847137002893	951227060
951227070	10004	4-in-1 Liquid Foundation in Medium Dark	How long can you go without a touchup? A few hours? Until lunchtime? With PÜR's 4-in-1 Liquid Foundation with SPF 15, you get hours of uninterrupted complexion perfection. Lightweight and oil-free, this dermatologist-tested formula offers all-day true color that won't smudge, rub off or fade. Enriched with age-defying Ceretin Complex, this foundation revelation draws vital moisture to the skin for a look so flawlessly fresh you might forget you're wearing makeup.	https://www.purcosmetics.com/4-in-1-liquid-foundation?utm_source=google_shopping	https://www.purcosmetics.com/media/catalog/product/4/-/4-in-1-liquid-foundation-medium-dark-cap-on.jpg	https://www.purcosmetics.com/media/catalog/product/4/-/4-in-1-liquid-foundation-medium-dark-swatch.jpg	36.00 USD	 	 	in stock	0.29 lb	Pur Cosmetics	951227070	new	Pur Category > Makeup > Face > Foundation,Pur Category > Makeup > Best Sellers,Pur Category > Makeup > Face	 	 	FALSE	 	847137002909	847137002909	951227070
951227080	10004	4-in-1 Liquid Foundation in Golden Dark	How long can you go without a touchup? A few hours? Until lunchtime? With PÜR's 4-in-1 Liquid Foundation with SPF 15, you get hours of uninterrupted complexion perfection. Lightweight and oil-free, this dermatologist-tested formula offers all-day true color that won't smudge, rub off or fade. Enriched with age-defying Ceretin Complex, this foundation revelation draws vital moisture to the skin for a look so flawlessly fresh you might forget you're wearing makeup.	https://www.purcosmetics.com/4-in-1-liquid-foundation?utm_source=google_shopping	https://www.purcosmetics.com/media/catalog/product/4/-/4-in-1-liquid-foundation-golden-dark-cap-on.jpg	https://www.purcosmetics.com/media/catalog/product/4/-/4-in-1-liquid-foundation-golden-dark-swatch.jpg	36.00 USD	 	 	in stock	0.29 lb	Pur Cosmetics	951227080	new	Pur Category > Makeup > Face > Foundation,Pur Category > Makeup > Best Sellers,Pur Category > Makeup > Face	 	 	FALSE	 	847137002916	847137002916	951227080
951227090	10004	4-in-1 Liquid Foundation in Deep	How long can you go without a touchup? A few hours? Until lunchtime? With PÜR's 4-in-1 Liquid Foundation with SPF 15, you get hours of uninterrupted complexion perfection. Lightweight and oil-free, this dermatologist-tested formula offers all-day true color that won't smudge, rub off or fade. Enriched with age-defying Ceretin Complex, this foundation revelation draws vital moisture to the skin for a look so flawlessly fresh you might forget you're wearing makeup.	https://www.purcosmetics.com/4-in-1-liquid-foundation?utm_source=google_shopping	https://www.purcosmetics.com/media/catalog/product/4/-/4-in-1-liquid-foundation-deep-cap-on.jpg	https://www.purcosmetics.com/media/catalog/product/4/-/4-in-1-liquid-foundation-deep-swatch.jpg	36.00 USD	 	 	in stock	0.29 lb	Pur Cosmetics	951227090	new	Pur Category > Makeup > Face > Foundation,Pur Category > Makeup > Best Sellers,Pur Category > Makeup > Face	 	 	FALSE	 	847137002923	847137002923	951227090
951227100	10004	4-in-1 Liquid Foundation in Deeper	How long can you go without a touchup? A few hours? Until lunchtime? With PÜR's 4-in-1 Liquid Foundation with SPF 15, you get hours of uninterrupted complexion perfection. Lightweight and oil-free, this dermatologist-tested formula offers all-day true color that won't smudge, rub off or fade. Enriched with age-defying Ceretin Complex, this foundation revelation draws vital moisture to the skin for a look so flawlessly fresh you might forget you're wearing makeup.	https://www.purcosmetics.com/4-in-1-liquid-foundation?utm_source=google_shopping	https://www.purcosmetics.com/media/catalog/product/4/-/4-in-1-liquid-foundation-deeper-cap-on.jpg	https://www.purcosmetics.com/media/catalog/product/4/-/4-in-1-liquid-foundation-deeper-swatch.jpg	36.00 USD	 	 	in stock	0.29 lb	Pur Cosmetics	951227100	new	Pur Category > Makeup > Face > Foundation,Pur Category > Makeup > Best Sellers,Pur Category > Makeup > Face	 	 	FALSE	 	847137002930	847137002930	951227100
951227050	10004	4-in-1 Liquid Foundation in Light Tan	How long can you go without a touchup? A few hours? Until lunchtime? With PÜR's 4-in-1 Liquid Foundation with SPF 15, you get hours of uninterrupted complexion perfection. Lightweight and oil-free, this dermatologist-tested formula offers all-day true color that won't smudge, rub off or fade. Enriched with age-defying Ceretin Complex, this foundation revelation draws vital moisture to the skin for a look so flawlessly fresh you might forget you're wearing makeup.	https://www.purcosmetics.com/4-in-1-liquid-foundation?utm_source=google_shopping	https://www.purcosmetics.com/media/catalog/product/4/-/4-in-1-liquid-foundation-light-tan-seal-72dpi.jpg	https://www.purcosmetics.com/media/catalog/product/4/-/4-in-1-liquid-foundation-light-tan-swatch.jpg	36.00 USD	 	 	in stock	0.29 lb	Pur Cosmetics	951227050	new	Pur Category > Makeup > Face > Foundation,Pur Category > Makeup > Best Sellers,Pur Category > Makeup > Face	 	 	FALSE	 	847137002886	847137002886	951227050
951227030	10004	4-in-1 Liquid Foundation in Blush Medium	How long can you go without a touchup? A few hours? Until lunchtime? With PÜR's 4-in-1 Liquid Foundation with SPF 15, you get hours of uninterrupted complexion perfection. Lightweight and oil-free, this dermatologist-tested formula offers all-day true color that won't smudge, rub off or fade. Enriched with age-defying Ceretin Complex, this foundation revelation draws vital moisture to the skin for a look so flawlessly fresh you might forget you're wearing makeup.	https://www.purcosmetics.com/4-in-1-liquid-foundation?utm_source=google_shopping	https://www.purcosmetics.com/media/catalog/product/4/-/4-in-1-liquid-foundation-blush-medium-seal-72dpi.jpg	https://www.purcosmetics.com/media/catalog/product/4/-/4-in-1-liquid-foundation-blush-medium-swatch.jpg	36.00 USD	 	 	in stock	0.29 lb	Pur Cosmetics	951227030	new	Pur Category > Makeup > Face > Foundation,Pur Category > Makeup > Best Sellers,Pur Category > Makeup > Face	 	 	FALSE	 	847137002862	847137002862	951227030
951227040	10004	4-in-1 Liquid Foundation in Golden Medium	How long can you go without a touchup? A few hours? Until lunchtime? With PÜR's 4-in-1 Liquid Foundation with SPF 15, you get hours of uninterrupted complexion perfection. Lightweight and oil-free, this dermatologist-tested formula offers all-day true color that won't smudge, rub off or fade. Enriched with age-defying Ceretin Complex, this foundation revelation draws vital moisture to the skin for a look so flawlessly fresh you might forget you're wearing makeup.	https://www.purcosmetics.com/4-in-1-liquid-foundation?utm_source=google_shopping	https://www.purcosmetics.com/media/catalog/product/4/-/4-in-1-liquid-foundation-golden-medium-seal-72dpi.jpg	https://www.purcosmetics.com/media/catalog/product/4/-/4-in-1-liquid-foundation-golden-medium-swatch.jpg	36.00 USD	 	 	in stock	0.29 lb	Pur Cosmetics	951227040	new	Pur Category > Makeup > Face > Foundation,Pur Category > Makeup > Best Sellers,Pur Category > Makeup > Face	 	 	FALSE	 	847137002879	847137002879	951227040
951227020	10004	4-in-1 Liquid Foundation in Light	How long can you go without a touchup? A few hours? Until lunchtime? With PÜR's 4-in-1 Liquid Foundation with SPF 15, you get hours of uninterrupted complexion perfection. Lightweight and oil-free, this dermatologist-tested formula offers all-day true color that won't smudge, rub off or fade. Enriched with age-defying Ceretin Complex, this foundation revelation draws vital moisture to the skin for a look so flawlessly fresh you might forget you're wearing makeup.	https://www.purcosmetics.com/4-in-1-liquid-foundation?utm_source=google_shopping	https://www.purcosmetics.com/media/catalog/product/4/-/4-in-1-liquid-foundation-light-seal-72dpi.jpg	https://www.purcosmetics.com/media/catalog/product/4/-/4-in-1-liquid-foundation-light-swatch.jpg	36.00 USD	 	 	in stock	0.29 lb	Pur Cosmetics	951227020	new	Pur Category > Makeup > Face > Foundation,Pur Category > Makeup > Best Sellers,Pur Category > Makeup > Face	 	 	FALSE	 	847137002855	847137002855	951227020
10068	 	Classic 4-in-1 Pressed Mineral Makeup Foundation	More than a mineral powder foundation, 4-in-1 Pressed Mineral Makeup Powder Foundation is a natural mineral makeup concealer, powder and SPF 15 protection all-I- one. The cornerstone PÜR makeup, this natural foundation is pure mineral pigment ground to the smoothest texture and bound with organic shea butter and vitamin E. This full-coverage mineral powder foundation is good for your skin and creates a flawless complexion.	https://www.purcosmetics.com/classic-4-in-1-pressed-mineral-makeup-foundation?utm_source=google_shopping	https://www.purcosmetics.com/media/catalog/product/4/-/4-in-1-pressed-foundation-medium-dark-1000x1000.jpg	https://www.purcosmetics.com/media/catalog/product/4/-/4-in-1-pressed-mineral-makeup-foundation-with-spf-15-original-deep-open_1.jpg,https://www.purcosmetics.com/media/catalog/product/4/-/4-in-1-pressed-mineral-makeup-foundation-with-spf-15-original-blush-medium-open_1.jpg,https://www.purcosmetics.com/media/catalog/product/4/-/4-in-1-pressed-mineral-makeup-foundation-with-spf-15-original-porcelain-open.jpg,https://www.purcosmetics.com/media/catalog/product/4/-/4-in-1-pressed-mineral-makeup-foundation-with-spf-15-original-tan-open_1.jpg,https://www.purcosmetics.com/media/catalog/product/4/-/4-in-1-pressed-mineral-makeup-foundation-with-spf-15-original-deepest-open_1.jpg,https://www.purcosmetics.com/media/catalog/product/4/-/4-in-1-pressed-mineral-makeup-foundation-with-spf-15-original-dark-open_1.jpg,https://www.purcosmetics.com/media/catalog/product/4/-/4-in-1-pressed-mineral-makeup-foundation-with-spf-15-original-deeper-open_1.jpg,https://www.purcosmetics.com/media/catalog/product/4/-/4-in-1-pressed-mineral-makeup-foundation-with-spf-15-original-medium-dark-open_1.jpg,https://www.purcosmetics.com/media/catalog/product/4/-/4-in-1-pressed-mineral-makeup-foundation-with-spf-15-original-light-open_1.jpg,https://www.purcosmetics.com/media/catalog/product/4/-/4-in-1-pressed-mineral-makeup-foundation-with-spf-15-original-dark-swatch.jpg	26.00 USD	10.00 USD	2018-02-07T00:00:00-05:00/2020-03-05T23:59:59-05:00	in stock	0.13 lb	Pur Cosmetics	10068	new	Pur Category > Makeup > Shop All,Pur Category > Sale,Pur Category	 	 	FALSE	 	 	 	10068
951220060	10068	Classic 4-in-1 Pressed Mineral Makeup Foundation in Medium Dark	The Classic Formula that Started it All More than a mineral powder foundation, 4-in-1 Pressed Mineral Makeup Powder Foundation is a natural mineral makeup concealer, powder and SPF 15 protection all in one. The cornerstone of the PÜR line, this natural foundation is pure mineral pigment ground to the smoothest texture and bound with organic shea butter and vitamin E. This full-coverage mineral powder foundation is good for your skin.	https://www.purcosmetics.com/classic-4-in-1-pressed-mineral-makeup-foundation?utm_source=google_shopping	https://www.purcosmetics.com/media/catalog/product/4/-/4-in-1-pressed-with-spf-15-original-mediumdark-opencpt-72dpi.jpg	https://www.purcosmetics.com/media/catalog/product/4/-/4-in-1-pressed-mineral-makeup-mediumdark-swatch-72dpi.jpg	26.00 USD	10.00 USD	2018-02-07T00:00:00-05:00/2020-03-05T23:59:59-05:00	in stock	0.13 lb	Pur Cosmetics	951220060	new	Pur Category > Makeup > Shop All,Pur Category > Sale,Pur Category	 	 	FALSE	 	878147000517	878147000517	951220060
951220070	10068	Classic 4-in-1 Pressed Mineral Makeup Foundation in Dark	The Classic Formula that Started it All More than a mineral powder foundation, 4-in-1 Pressed Mineral Makeup Powder Foundation is a natural mineral makeup concealer, powder and SPF 15 protection all in one. The cornerstone of the PÜR line, this natural foundation is pure mineral pigment ground to the smoothest texture and bound with organic shea butter and vitamin E. This full-coverage mineral powder foundation is good for your skin.	https://www.purcosmetics.com/classic-4-in-1-pressed-mineral-makeup-foundation?utm_source=google_shopping	https://www.purcosmetics.com/media/catalog/product/4/-/4-in-1-pressed-mineral-makeup-foundation-with-spf-15-original-dark-open.jpg	https://www.purcosmetics.com/media/catalog/product/4/-/4-in-1-pressed-mineral-makeup-foundation-with-spf-15-original-dark-swatch.jpg	26.00 USD	10.00 USD	2018-02-07T00:00:00-05:00/2020-03-05T23:59:59-05:00	in stock	0.13 lb	Pur Cosmetics	951220070	new	Pur Category > Makeup > Shop All,Pur Category > Sale,Pur Category	 	 	FALSE	 	878147000500	878147000500	951220070
951220080	10068	Classic 4-in-1 Pressed Mineral Makeup Foundation in Deep	The Classic Formula that Started it All More than a mineral powder foundation, 4-in-1 Pressed Mineral Makeup Powder Foundation is a natural mineral makeup concealer, powder and SPF 15 protection all in one. The cornerstone of the PÜR line, this natural foundation is pure mineral pigment ground to the smoothest texture and bound with organic shea butter and vitamin E. This full-coverage mineral powder foundation is good for your skin.	https://www.purcosmetics.com/classic-4-in-1-pressed-mineral-makeup-foundation?utm_source=google_shopping	https://www.purcosmetics.com/media/catalog/product/4/-/4-in-1-pressed-mineral-makeup-foundation-with-spf-15-original-deep-open.jpg	https://www.purcosmetics.com/media/catalog/product/4/-/4-in-1-pressed-mineral-makeup-foundation-with-spf-15-original-deep-swatch.jpg	26.00 USD	10.00 USD	2018-02-07T00:00:00-05:00/2020-03-05T23:59:59-05:00	in stock	0.13 lb	Pur Cosmetics	951220080	new	Pur Category > Makeup > Shop All,Pur Category > Sale,Pur Category	 	 	FALSE	 	878147000524	878147000524	951220080
951220090	10068	Classic 4-in-1 Pressed Mineral Makeup Foundation in Deeper	The Classic Formula that Started it All More than a mineral powder foundation, 4-in-1 Pressed Mineral Makeup Powder Foundation is a natural mineral makeup concealer, powder and SPF 15 protection all in one. The cornerstone of the PÜR line, this natural foundation is pure mineral pigment ground to the smoothest texture and bound with organic shea butter and vitamin E. This full-coverage mineral powder foundation is good for your skin.	https://www.purcosmetics.com/classic-4-in-1-pressed-mineral-makeup-foundation?utm_source=google_shopping	https://www.purcosmetics.com/media/catalog/product/4/-/4-in-1-pressed-mineral-makeup-foundation-with-spf-15-original-deeper-open.jpg	https://www.purcosmetics.com/media/catalog/product/4/-/4-in-1-pressed-mineral-makeup-foundation-with-spf-15-original-deeper-swatch.jpg	26.00 USD	10.00 USD	2018-02-07T00:00:00-05:00/2020-03-05T23:59:59-05:00	in stock	0.13 lb	Pur Cosmetics	951220090	new	Pur Category > Makeup > Shop All,Pur Category > Sale,Pur Category	 	 	FALSE	 	878147003136	878147003136	951220090
951220100	10068	Classic 4-in-1 Pressed Mineral Makeup Foundation in Deepest	The Classic Formula that Started it All More than a mineral powder foundation, 4-in-1 Pressed Mineral Makeup Powder Foundation is a natural mineral makeup concealer, powder and SPF 15 protection all in one. The cornerstone of the PÜR line, this natural foundation is pure mineral pigment ground to the smoothest texture and bound with organic shea butter and vitamin E. This full-coverage mineral powder foundation is good for your skin.	https://www.purcosmetics.com/classic-4-in-1-pressed-mineral-makeup-foundation?utm_source=google_shopping	https://www.purcosmetics.com/media/catalog/product/4/-/4-in-1-pressed-mineral-makeup-foundation-with-spf-15-original-deepest-open.jpg	https://www.purcosmetics.com/media/catalog/product/4/-/4-in-1-pressed-mineral-makeup-foundation-with-spf-15-original-deepest-swatch.jpg	26.00 USD	10.00 USD	2018-02-07T00:00:00-05:00/2020-03-05T23:59:59-05:00	in stock	0.13 lb	Pur Cosmetics	951220100	new	Pur Category > Makeup > Shop All,Pur Category > Sale,Pur Category	 	 	FALSE	 	878147003143	878147003143	951220100
10132	 	4-in-1 Pressed Mineral Makeup Foundation with Skincare Ingredients	Makeup, meet skincare. Our 4-in-1 Pressed Mineral Powder Foundation gives you the flawless mineral coverage you expect from PÜR with groundbreaking skincare ingredients built into our award-winning formula. Our powder foundation is adored worldwide for its lightweight feel and no-mess, no-stress application. This all-in-one foundation, concealer, powder and SPF 15 has been clinically proven to correct, prevent and interrupt your biggest skin concerns – even after the makeup comes off! That's pretty smart beauty.	https://www.purcosmetics.com/4-in-1-pressed-mineral-makeup-foundation-with-skincare-ingredients?utm_source=google_shopping	https://www.purcosmetics.com/media/catalog/product/4/-/4-in-1-pressed-mineral-makeup-porcelain-open.jpg	https://www.purcosmetics.com/media/catalog/product/4/-/4-in-1-pressed-mineral-makeup-tan-open.jpg,https://www.purcosmetics.com/media/catalog/product/b/a/bailey-blushmedium_1.jpg	29.50 USD	 	 	in stock	0.80 lb	Pur Cosmetics	10132	new	Pur Category > Makeup > Face > Foundation,Pur Category > Makeup > Best Sellers,Pur Category > Makeup > Face	 	 	FALSE	 	00847137025267	00847137025267	10132
951225010	10132	4-in-1 Pressed Mineral Makeup Foundation with Skincare Ingredients in	Makeup, meet skincare. Our 4-in-1 Pressed Mineral Powder Foundation gives you the flawless mineral coverage you expect from PÜR with groundbreaking skincare ingredients built into our award-winning formula. Our powder foundation is adored worldwide for its lightweight feel and no-mess, no-stress application. This all-in-one foundation, concealer, powder and SPF 15 has been clinically proven to correct, prevent and interrupt your biggest skin concerns – even after the makeup comes off! That's pretty smart beauty.	https://www.purcosmetics.com/4-in-1-pressed-mineral-makeup-foundation-with-skincare-ingredients?utm_source=google_shopping	https://www.purcosmetics.com/media/catalog/product/4/-/4-in-1-pressed-mineral-makeup-porcelain-open.jpg	https://www.purcosmetics.com/media/catalog/product/4/-/4-in-1-pressed-mineral-makeup-porcelain-closed.jpg,https://www.purcosmetics.com/media/catalog/product/4/-/4-in-1-pressed-mineral-makeup-porcelain-swatch-2.jpg,https://www.purcosmetics.com/media/catalog/product/f/o/foundation-stick_light-porcleain_72dpi_1_3.jpg	29.50 USD	 	 	in stock	0.80 lb	Pur Cosmetics	951225010	new	Pur Category > Makeup > Face > Foundation,Pur Category > Makeup > Best Sellers,Pur Category > Makeup > Face	 	 	FALSE	 	878147007806	878147007806	951225010
951225020	10132	4-in-1 Pressed Mineral Makeup Foundation with Skincare Ingredients in	Makeup, meet skincare. Our 4-in-1 Pressed Mineral Powder Foundation gives you the flawless mineral coverage you expect from PÜR with groundbreaking skincare ingredients built into our award-winning formula. Our powder foundation is adored worldwide for its lightweight feel and no-mess, no-stress application. This all-in-one foundation, concealer, powder and SPF 15 has been clinically proven to correct, prevent and interrupt your biggest skin concerns – even after the makeup comes off! That's pretty smart beauty.	https://www.purcosmetics.com/4-in-1-pressed-mineral-makeup-foundation-with-skincare-ingredients?utm_source=google_shopping	https://www.purcosmetics.com/media/catalog/product/4/-/4-in-1-pressed-mineral-makeup-light-open.jpg	https://www.purcosmetics.com/media/catalog/product/4/-/4-in-1-pressed-mineral-makeup-light-closed.jpg,https://www.purcosmetics.com/media/catalog/product/4/-/4-in-1-pressed-mineral-makeup-light-swatch-72dpi.jpg,https://www.purcosmetics.com/media/catalog/product/f/o/foundation-stick_light_72dpi_1_4.jpg	29.50 USD	 	 	in stock	0.80 lb	Pur Cosmetics	951225020	new	Pur Category > Makeup > Face > Foundation,Pur Category > Makeup > Best Sellers,Pur Category > Makeup > Face	 	 	FALSE	 	878147007813	878147007813	951225020
951225030	10132	4-in-1 Pressed Mineral Makeup Foundation with Skincare Ingredients in	Makeup, meet skincare. Our 4-in-1 Pressed Mineral Powder Foundation gives you the flawless mineral coverage you expect from PÜR with groundbreaking skincare ingredients built into our award-winning formula. Our powder foundation is adored worldwide for its lightweight feel and no-mess, no-stress application. This all-in-one foundation, concealer, powder and SPF 15 has been clinically proven to correct, prevent and interrupt your biggest skin concerns – even after the makeup comes off! That's pretty smart beauty.	https://www.purcosmetics.com/4-in-1-pressed-mineral-makeup-foundation-with-skincare-ingredients?utm_source=google_shopping	https://www.purcosmetics.com/media/catalog/product/4/-/4-in-1-pressed-mineral-makeup-blush-medium-open.jpg	https://www.purcosmetics.com/media/catalog/product/4/-/4-in-1-pressed-mineral-makeup-blush-medium-swatch.jpg,https://www.purcosmetics.com/media/catalog/product/4/-/4-in-1-pressed-mineral-makeup-blush-medium-closed.jpg,https://www.purcosmetics.com/media/catalog/product/f/o/foundation-stick_blush-medium_72dpi_1_3.jpg	29.50 USD	 	 	in stock	0.80 lb	Pur Cosmetics	951225030	new	Pur Category > Makeup > Face > Foundation,Pur Category > Makeup > Best Sellers,Pur Category > Makeup > Face	 	 	FALSE	 	878147007820	878147007820	951225030
951225040	10132	4-in-1 Pressed Mineral Makeup Foundation with Skincare Ingredients in	Makeup, meet skincare. Our 4-in-1 Pressed Mineral Powder Foundation gives you the flawless mineral coverage you expect from PÜR with groundbreaking skincare ingredients built into our award-winning formula. Our powder foundation is adored worldwide for its lightweight feel and no-mess, no-stress application. This all-in-one foundation, concealer, powder and SPF 15 has been clinically proven to correct, prevent and interrupt your biggest skin concerns – even after the makeup comes off! That's pretty smart beauty.	https://www.purcosmetics.com/4-in-1-pressed-mineral-makeup-foundation-with-skincare-ingredients?utm_source=google_shopping	https://www.purcosmetics.com/media/catalog/product/4/-/4-in-1-pressed-mineral-makeup-golden-medium-open.jpg	https://www.purcosmetics.com/media/catalog/product/4/-/4-in-1-pressed-mineral-makeup-golden-medium-closed.jpg,https://www.purcosmetics.com/media/catalog/product/4/-/4-in-1-pressed-mineral-makeup-golden-medium-swatch.jpg,https://www.purcosmetics.com/media/catalog/product/f/o/foundation-stick_golden-medium_72dpi_1_3.jpg	29.50 USD	 	 	in stock	0.80 lb	Pur Cosmetics	951225040	new	Pur Category > Makeup > Face > Foundation,Pur Category > Makeup > Best Sellers,Pur Category > Makeup > Face	 	 	FALSE	 	878147007837	878147007837	951225040
951225050	10132	4-in-1 Pressed Mineral Makeup Foundation with Skincare Ingredients in	Makeup, meet skincare. Our 4-in-1 Pressed Mineral Powder Foundation gives you the flawless mineral coverage you expect from PÜR with groundbreaking skincare ingredients built into our award-winning formula. Our powder foundation is adored worldwide for its lightweight feel and no-mess, no-stress application. This all-in-one foundation, concealer, powder and SPF 15 has been clinically proven to correct, prevent and interrupt your biggest skin concerns – even after the makeup comes off! That's pretty smart beauty.	https://www.purcosmetics.com/4-in-1-pressed-mineral-makeup-foundation-with-skincare-ingredients?utm_source=google_shopping	https://www.purcosmetics.com/media/catalog/product/4/-/4-in-1-pressed-mineral-makeup-light-tan-open.jpg	https://www.purcosmetics.com/media/catalog/product/4/-/4-in-1-pressed-mineral-makeup-light-tan-closed.jpg,https://www.purcosmetics.com/media/catalog/product/4/-/4-in-1-pressed-mineral-makeup-light-tan-swatch.jpg,https://www.purcosmetics.com/media/catalog/product/f/o/foundation-stick_light-tan_72dpi_1_3.jpg	29.50 USD	 	 	in stock	0.80 lb	Pur Cosmetics	951225050	new	Pur Category > Makeup > Face > Foundation,Pur Category > Makeup > Best Sellers,Pur Category > Makeup > Face	 	 	FALSE	 	878147007844	878147007844	951225050
951225060	10132	4-in-1 Pressed Mineral Makeup Foundation with Skincare Ingredients in	Makeup, meet skincare. Our 4-in-1 Pressed Mineral Powder Foundation gives you the flawless mineral coverage you expect from PÜR with groundbreaking skincare ingredients built into our award-winning formula. Our powder foundation is adored worldwide for its lightweight feel and no-mess, no-stress application. This all-in-one foundation, concealer, powder and SPF 15 has been clinically proven to correct, prevent and interrupt your biggest skin concerns – even after the makeup comes off! That's pretty smart beauty.	https://www.purcosmetics.com/4-in-1-pressed-mineral-makeup-foundation-with-skincare-ingredients?utm_source=google_shopping	https://www.purcosmetics.com/media/catalog/product/4/-/4-in-1-pressed-mineral-makeup-tan-open.jpg	https://www.purcosmetics.com/media/catalog/product/4/-/4-in-1-pressed-mineral-makeup-tan-closed.jpg,https://www.purcosmetics.com/media/catalog/product/4/-/4-in-1-pressed-mineral-makeup-tan-swatch.jpg,https://www.purcosmetics.com/media/catalog/product/f/o/foundation-stick_tan_72dpi_1_4.jpg	29.50 USD	 	 	in stock	0.80 lb	Pur Cosmetics	951225060	new	Pur Category > Makeup > Face > Foundation,Pur Category > Makeup > Best Sellers,Pur Category > Makeup > Face	 	 	FALSE	 	878147007851	878147007851	951225060
951225070	10132	4-in-1 Pressed Mineral Makeup Foundation with Skincare Ingredients in	Makeup, meet skincare. Our 4-in-1 Pressed Mineral Powder Foundation gives you the flawless mineral coverage you expect from PÜR with groundbreaking skincare ingredients built into our award-winning formula. Our powder foundation is adored worldwide for its lightweight feel and no-mess, no-stress application. This all-in-one foundation, concealer, powder and SPF 15 has been clinically proven to correct, prevent and interrupt your biggest skin concerns – even after the makeup comes off! That's pretty smart beauty.	https://www.purcosmetics.com/4-in-1-pressed-mineral-makeup-foundation-with-skincare-ingredients?utm_source=google_shopping	https://www.purcosmetics.com/media/catalog/product/4/-/4-in-1-pressed-mineral-makeup-medium-dark-open.jpg	https://www.purcosmetics.com/media/catalog/product/4/-/4-in-1-pressed-mineral-makeup-medium-dark-closed.jpg,https://www.purcosmetics.com/media/catalog/product/4/-/4-in-1-pressed-mineral-makeup-medium-dark-swatch.jpg,https://www.purcosmetics.com/media/catalog/product/f/o/foundation-stick_medium-dark_72dpi_1_3.jpg	29.50 USD	 	 	in stock	0.80 lb	Pur Cosmetics	951225070	new	Pur Category > Makeup > Face > Foundation,Pur Category > Makeup > Best Sellers,Pur Category > Makeup > Face	 	 	FALSE	 	878147007868	878147007868	951225070
951225080	10132	4-in-1 Pressed Mineral Makeup Foundation with Skincare Ingredients in	Makeup, meet skincare. Our 4-in-1 Pressed Mineral Powder Foundation gives you the flawless mineral coverage you expect from PÜR with groundbreaking skincare ingredients built into our award-winning formula. Our powder foundation is adored worldwide for its lightweight feel and no-mess, no-stress application. This all-in-one foundation, concealer, powder and SPF 15 has been clinically proven to correct, prevent and interrupt your biggest skin concerns – even after the makeup comes off! That's pretty smart beauty.	https://www.purcosmetics.com/4-in-1-pressed-mineral-makeup-foundation-with-skincare-ingredients?utm_source=google_shopping	https://www.purcosmetics.com/media/catalog/product/4/-/4-in-1-pressed-mineral-makeup-golden-dark-open.jpg	https://www.purcosmetics.com/media/catalog/product/4/-/4-in-1-pressed-mineral-makeup-golden-dark-closed.jpg,https://www.purcosmetics.com/media/catalog/product/4/-/4-in-1-pressed-mineral-makeup-golden-dark-swatch.jpg,https://www.purcosmetics.com/media/catalog/product/f/o/foundation-stick_golden-dark_72dpi_1_3.jpg	29.50 USD	 	 	in stock	0.80 lb	Pur Cosmetics	951225080	new	Pur Category > Makeup > Face > Foundation,Pur Category > Makeup > Best Sellers,Pur Category > Makeup > Face	 	 	FALSE	 	878147007875	878147007875	951225080
951225090	10132	4-in-1 Pressed Mineral Makeup Foundation with Skincare Ingredients in	Makeup, meet skincare. Our 4-in-1 Pressed Mineral Powder Foundation gives you the flawless mineral coverage you expect from PÜR with groundbreaking skincare ingredients built into our award-winning formula. Our powder foundation is adored worldwide for its lightweight feel and no-mess, no-stress application. This all-in-one foundation, concealer, powder and SPF 15 has been clinically proven to correct, prevent and interrupt your biggest skin concerns – even after the makeup comes off! That's pretty smart beauty.	https://www.purcosmetics.com/4-in-1-pressed-mineral-makeup-foundation-with-skincare-ingredients?utm_source=google_shopping	https://www.purcosmetics.com/media/catalog/product/4/-/4-in-1-pressed-mineral-makeup-deep-open.jpg	https://www.purcosmetics.com/media/catalog/product/4/-/4-in-1-pressed-mineral-makeup-deep-closed.jpg,https://www.purcosmetics.com/media/catalog/product/4/-/4-in-1-pressed-mineral-makeup-deep-swatch_1.jpg,https://www.purcosmetics.com/media/catalog/product/f/o/foundation-stick_deep_72dpi_1_4.jpg	29.50 USD	 	 	in stock	0.80 lb	Pur Cosmetics	951225090	new	Pur Category > Makeup > Face > Foundation,Pur Category > Makeup > Best Sellers,Pur Category > Makeup > Face	 	 	FALSE	 	878147007882	878147007882	951225090
951225100	10132	4-in-1 Pressed Mineral Makeup Foundation with Skincare Ingredients in	Makeup, meet skincare. Our 4-in-1 Pressed Mineral Powder Foundation gives you the flawless mineral coverage you expect from PÜR with groundbreaking skincare ingredients built into our award-winning formula. Our powder foundation is adored worldwide for its lightweight feel and no-mess, no-stress application. This all-in-one foundation, concealer, powder and SPF 15 has been clinically proven to correct, prevent and interrupt your biggest skin concerns – even after the makeup comes off! That's pretty smart beauty.	https://www.purcosmetics.com/4-in-1-pressed-mineral-makeup-foundation-with-skincare-ingredients?utm_source=google_shopping	https://www.purcosmetics.com/media/catalog/product/4/-/4-in-1-pressed-mineral-makeup-deeper-open.jpg	https://www.purcosmetics.com/media/catalog/product/4/-/4-in-1-pressed-mineral-makeup-deeper-closed.jpg,https://www.purcosmetics.com/media/catalog/product/4/-/4-in-1-pressed-mineral-makeup-deeper-swatch.jpg,https://www.purcosmetics.com/media/catalog/product/f/o/foundation-stick_deeper_72dpi_1_3.jpg	29.50 USD	 	 	in stock	0.80 lb	Pur Cosmetics	951225100	new	Pur Category > Makeup > Face > Foundation,Pur Category > Makeup > Best Sellers,Pur Category > Makeup > Face	 	 	FALSE	 	878147007899	878147007899	951225100
951225110	10132	4-in-1 Pressed Mineral Makeup Foundation with Skincare Ingredients in	Makeup, meet skincare. Our 4-in-1 Pressed Mineral Powder Foundation gives you the flawless mineral coverage you expect from PÜR with groundbreaking skincare ingredients built into our award-winning formula. Our powder foundation is adored worldwide for its lightweight feel and no-mess, no-stress application. This all-in-one foundation, concealer, powder and SPF 15 has been clinically proven to correct, prevent and interrupt your biggest skin concerns – even after the makeup comes off! That's pretty smart beauty.	https://www.purcosmetics.com/4-in-1-pressed-mineral-makeup-foundation-with-skincare-ingredients?utm_source=google_shopping	https://www.purcosmetics.com/media/catalog/product/4/-/4-in-1-pressed-mineral-makeup-medium-tan-open.jpg	https://www.purcosmetics.com/media/catalog/product/4/-/4-in-1-pressed-mineral-makeup-medium-tan-closed.jpg,https://www.purcosmetics.com/media/catalog/product/4/-/4-in-1-pressed-mineral-makeup-medium-tan-swatch.jpg,https://www.purcosmetics.com/media/catalog/product/f/o/foundation-stick_medium-tan_72dpi_1_2.jpg	29.50 USD	 	 	in stock	0.80 lb	Pur Cosmetics	951225110	new	Pur Category > Makeup > Face > Foundation,Pur Category > Makeup > Best Sellers,Pur Category > Makeup > Face	 	 	FALSE	 	847137009564	847137009564	951225110
10196	 	4-in-1 Tinted Moisturizer	Your moisturizer, primer, foundation and SPF 20 all-in-one! This innovative 4-in-1 formula infuses the skin with powerful hydrators and proven correctives, including sodium hyaluronate and PÜR's exclusive Ceretin Complex, a one-of-a-kind ingredient engineered to radically renew the skin without irritation. Use it alone for a one-step, ultra-natural complexion or as a hydrating, broad-spectrum base for mineral makeup application.	https://www.purcosmetics.com/4-in-1-tinted-moisturizer?utm_source=google_shopping	https://www.purcosmetics.com/media/catalog/product/4/-/4-in-1-mineral-tinted-moisturizer-light-cap-on-72dpi_1.jpg	https://www.purcosmetics.com/media/catalog/product/4/-/4-in-1-mineral-tinted-moisturizer-medium-cap-on-72dpi_1.jpg,https://www.purcosmetics.com/media/catalog/product/4/-/4-in-1-mineral-tinted-moisturizer-dark-cap-on-72dpi_1.jpg,https://www.purcosmetics.com/media/catalog/product/4/-/4-in-1-mineral-tinted-moisturizer-tan-cap-on-72dpi_1.jpg,https://www.purcosmetics.com/media/catalog/product/4/-/4-in-1-mineral-tinted-moisturizer-medium-swatch.jpg,https://www.purcosmetics.com/media/catalog/product/4/-/4-in-1-mineral-tinted-moisturizer-dark-swatch.jpg,https://www.purcosmetics.com/media/catalog/product/4/-/4-in-1-mineral-tinted-moisturizer-tan-swatch.jpg,https://www.purcosmetics.com/media/catalog/product/4/-/4-in-1-mineral-tinted-moisturizer-light-swatch.jpg	35.00 USD	 	 	in stock	0.16 lb	Pur Cosmetics	10196	new	Pur Category > Makeup > Face > Foundation,Pur Category > Makeup > Best Sellers,Pur Category > Makeup > Face	 	 	FALSE	 	 	 	10196
951158010	10196	4-in-1 Tinted Moisturizer in Light	Your moisturizer, primer, foundation and SPF 20 all in one! This innovative 4-in-1 formula infuses the skin with powerful hydrators and proven correctives, including sodium hyaluronate and Pur's exclusive Ceretin Complex a one-of-a-kind ingredient engineered to radically renew the skin without irritation. Use it alone for a one-step, ultra-natural complexion or as a hydrating, broad-spectrum base for mineral makeup application. Vegan friendly. Paraben-Free.	https://www.purcosmetics.com/4-in-1-tinted-moisturizer?utm_source=google_shopping	https://www.purcosmetics.com/media/catalog/product/4/-/4-in-1-mineral-tinted-moisturizer-light-cap-on-72dpi.jpg	https://www.purcosmetics.com/media/catalog/product/4/-/4-in-1-mineral-tinted-moisturizer-light-swatch.jpg	35.00 USD	 	 	in stock	0.16 lb	Pur Cosmetics	951158010	new	Pur Category > Makeup > Face > Foundation,Pur Category > Makeup > Best Sellers,Pur Category > Makeup > Face	 	 	FALSE	 	847137001186	847137001186	951158010
951159010	10196	4-in-1 Tinted Moisturizer in Medium	Your moisturizer, primer, foundation and SPF 20 all in one! This innovative 4-in-1 formula infuses the skin with powerful hydrators and proven correctives, including sodium hyaluronate and Pur's exclusive Ceretin Complex a one-of-a-kind ingredient engineered to radically renew the skin without irritation. Use it alone for a one-step, ultra-natural complexion or as a hydrating, broad-spectrum base for mineral makeup application. Vegan friendly. Paraben-Free.	https://www.purcosmetics.com/4-in-1-tinted-moisturizer?utm_source=google_shopping	https://www.purcosmetics.com/media/catalog/product/4/-/4-in-1-mineral-tinted-moisturizer-medium-cap-on-72dpi.jpg	https://www.purcosmetics.com/media/catalog/product/4/-/4-in-1-mineral-tinted-moisturizer-medium-swatch.jpg	35.00 USD	 	 	in stock	0.16 lb	Pur Cosmetics	951159010	new	Pur Category > Makeup > Face > Foundation,Pur Category > Makeup > Best Sellers,Pur Category > Makeup > Face	 	 	FALSE	 	847137001209	847137001209	951159010
951160010	10196	4-in-1 Tinted Moisturizer in Tan	Your moisturizer, primer, foundation and SPF 20 all in one! This innovative 4-in-1 formula infuses the skin with powerful hydrators and proven correctives, including sodium hyaluronate and Pur's exclusive Ceretin Complex a one-of-a-kind ingredient engineered to radically renew the skin without irritation. Use it alone for a one-step, ultra-natural complexion or as a hydrating, broad-spectrum base for mineral makeup application. Vegan friendly. Paraben-Free.	https://www.purcosmetics.com/4-in-1-tinted-moisturizer?utm_source=google_shopping	https://www.purcosmetics.com/media/catalog/product/4/-/4-in-1-mineral-tinted-moisturizer-tan-cap-on-72dpi.jpg	https://www.purcosmetics.com/media/catalog/product/4/-/4-in-1-mineral-tinted-moisturizer-tan-swatch.jpg	35.00 USD	 	 	out of stock	0.16 lb	Pur Cosmetics	951160010	new	Pur Category > Makeup > Face > Foundation,Pur Category > Makeup > Best Sellers,Pur Category > Makeup > Face	 	 	FALSE	 	847137001223	847137001223	951160010
951161010	10196	4-in-1 Tinted Moisturizer in Dark	Your moisturizer, primer, foundation and SPF 20 all in one! This innovative 4-in-1 formula infuses the skin with powerful hydrators and proven correctives, including sodium hyaluronate and Pur's exclusive Ceretin Complex a one-of-a-kind ingredient engineered to radically renew the skin without irritation. Use it alone for a one-step, ultra-natural complexion or as a hydrating, broad-spectrum base for mineral makeup application. Vegan friendly. Paraben-Free.	https://www.purcosmetics.com/4-in-1-tinted-moisturizer?utm_source=google_shopping	https://www.purcosmetics.com/media/catalog/product/4/-/4-in-1-mineral-tinted-moisturizer-dark-cap-on-72dpi.jpg	https://www.purcosmetics.com/media/catalog/product/4/-/4-in-1-mineral-tinted-moisturizer-dark-swatch.jpg	35.00 USD	 	 	in stock	0.16 lb	Pur Cosmetics	951161010	new	Pur Category > Makeup > Face > Foundation,Pur Category > Makeup > Best Sellers,Pur Category > Makeup > Face	 	 	FALSE	 	847137001247	847137001247	951161010
951333030	 	Afterglow Illuminating Powder	This mineral-rich illuminating powder gives your look a luminous glow that diffuses imperfections. Afterglow provides a lit-from-within finish to your look and is the perfect product for an understated strobe effect.	https://www.purcosmetics.com/afterglow?utm_source=google_shopping	https://www.purcosmetics.com/media/catalog/product/a/f/afterglow-powder-open.jpg	https://www.purcosmetics.com/media/catalog/product/a/f/afterglow-powder-closed.jpg,https://www.purcosmetics.com/media/catalog/product/a/f/afterglow-powder-swatch.jpg	25.00 USD	20.00 USD	2018-07-24T00:00:00-04:00/2020-03-05T23:59:59-05:00	in stock	0.12 lb	Pur Cosmetics	951333030	new	Pur Category > Makeup > Cheeks > Highlighter,Pur Category > Makeup > Shop All,Pur Category > Sale	 	 	FALSE	 	847137012984	847137012984	951333030
951451110	 	Big Look Mascara	Long Luxe Lashes Take your lashes to the extreme with PÜR's mascara miracle! If you’re looking for the best no clump mascara, you’ve found it. Fortified with Argan Oil, this game-changing volumizing mascara envelops lashes in nourishing, knockout colour with endless build and dewy sheen. With our exclusive, clump-resistant mascara wand, getting smooth, evenly coated lashes is easy — even in tough inner corners! Now, that's a stroke of genius.	https://www.purcosmetics.com/big-look-mascara?utm_source=google_shopping	https://www.purcosmetics.com/media/catalog/product/b/i/big-look-mascara-cap-on.jpg	https://www.purcosmetics.com/media/catalog/product/b/i/big-look-mascara-cap-on-appl-to-side.jpg,https://www.purcosmetics.com/media/catalog/product/b/i/big-look-mascara-swatch.jpg	21.00 USD	 	 	in stock	0.07 lb	Pur Cosmetics	951451110	new	Pur Category > Makeup > Eyes > Mascara,Pur Category > Makeup > Eyes,Pur Category > Makeup > Shop All	 	 	FALSE	 	847137011819	847137011819	951451110
951452110	 	Big Look Mascara Mini	Take your lashes to the extreme with PÜR's mascara miracle! If you're looking for the best no clump mascara, you've found it. Fortified with Argan Oil, this game-changing volumizing mascara formula envelops lashes in nourishing, knockout colour with endless build and dewy sheen. And with our exclusive, clump-resistant mascara wand, getting smooth, evenly coated lashes is easy - even in tough inner corners! Now, that's a stroke of genius.	https://www.purcosmetics.com/big-look-mascara-mini?utm_source=google_shopping	https://www.purcosmetics.com/media/catalog/product/8/5/851452110_mini_biglookmascara_72dpi.jpg	https://www.purcosmetics.com/media/catalog/product/b/i/big-look-mascara--swatch-72dpi.jpg	15.00 USD	 	 	in stock	0.06 lb	Pur Cosmetics	951452110	new	Pur Category > Collections > Travel Size,Pur Category > Makeup > Minis,Pur Category	 	 	FALSE	 	847137011802	847137011802	951452110
951452030	 	Big Look Waterproof Mascara Mini	Rain or shine, take your lashes to the extreme! Made with Argan Oil - a revolutionary ingredient, loaded with lash-loving omega fatty acids, vitamin E and antioxidants - PÜR's waterproof mascara evenly coats each lash in beautiful, budge-proof colour. Go big with our exclusive, clump-resistant wand, ensuring a smooth, no-mess application - even in tough inner corners! This lash enhancing natural mascara is the last waterproof mascara that you will ever need!	https://www.purcosmetics.com/big-look-waterproof-mascara-mini?utm_source=google_shopping	https://www.purcosmetics.com/media/catalog/product/b/i/big-look-waterproof-mascara-deluxe-sample-cap-appl-to-side.jpg	https://www.purcosmetics.com/media/catalog/product/b/i/big-look-waterproof-mascara-deluxe-sample-swatch.jpg	15.00 USD	8.00 USD	2018-11-09T00:00:00-05:00/2020-03-05T23:59:59-05:00	in stock	0.06 lb	Pur Cosmetics	951452030	new	Pur Category > Makeup > Minis,Pur Category > Collections > Travel Size,Pur Category > Sale	 	 	FALSE	 	847137010959	847137010959	951452030
951661010	 	Blush Brush	The Blush Brush picks up just the right amount of blush for a seamless application of colour to highlight and contour your cheek bones. This dome-shaped blush makeup brush gives you a beautiful, even deposit of colour every time. The Blush Makeup Brush is made of all-natural, cruelty-free goat, sable and pony hair, and feels soft against your skin.	https://www.purcosmetics.com/blush-brush?utm_source=google_shopping	https://www.purcosmetics.com/media/catalog/product/b/l/blush-brush-1000x1000_1.jpg	 	16.00 USD	6.00 USD	2017-03-13T00:00:00-04:00/2020-03-05T23:59:59-05:00	in stock	0.04 lb	Pur Cosmetics	951661010	new	Pur Category > Makeup > Brushes & Tools,Pur Category > Sale,Pur Category	 	 	FALSE	 	878147001255	878147001255	951661010
951441030	 	Brow Perfection Trio	Featuring two brow powders for all hair tones and an easy to use shaping wax, Brow Perfection Trio makes creating flawless brows a breeze. Both shades blend effortlessly to mimic the highlights and lowlights of your natural hair colour while PÜR's unique shaping wax conditions as it shapes brows and holds onto colour for the perfect arches every time.	https://www.purcosmetics.com/brow-perfection?utm_source=google_shopping	https://www.purcosmetics.com/media/catalog/product/b/r/brow-perfection-trio-1000x1000.jpg	https://www.purcosmetics.com/media/catalog/product/b/r/brow-perfection-trio-open.jpg	26.00 USD	7.00 USD	2017-03-24T00:00:00-04:00/2020-03-05T23:59:59-05:00	in stock	0.06 lb	Pur Cosmetics	951441030	new	Pur Category > Makeup > Eyes > Brows,Pur Category > Makeup > Shop All,Pur Category > Sale	 	 	FALSE	 	847137003661	847137003661	951441030
10388	 	Browder	Bold, Defined Brows Bold brows are in! With PÜR's long-lasting brow powder, you don't need to be a makeup artist to get perfectly defined brows. This unique fiber formula adds naturally bold definition to sparse and uneven brows for a look that's always natural, never "drawn on". Use the innovative flocked applicator to groom and sculpt for the perfect arch or reach for your eyeliner brush for double duty use as a smoky eyeliner.	https://www.purcosmetics.com/browder?utm_source=google_shopping	https://www.purcosmetics.com/media/catalog/product/b/r/browder-blonde-1000x1000.jpg	https://www.purcosmetics.com/media/catalog/product/b/r/browder-brunette-cap-on-appl-to-side.jpg,https://www.purcosmetics.com/media/catalog/product/b/r/browder-medium-brown-cap-on-appl-to-side.jpg,https://www.purcosmetics.com/media/catalog/product/b/r/browder-blonde-cap-on-appl-to-side.jpg,https://www.purcosmetics.com/media/catalog/product/b/r/browder-brunette-cap-on.jpg,https://www.purcosmetics.com/media/catalog/product/b/r/browder-medium-brown-cap-on.jpg,https://www.purcosmetics.com/media/catalog/product/b/r/browder-blonde-cap-on.jpg,https://www.purcosmetics.com/media/catalog/product/b/r/browder-medium-brown-swatch.jpg,https://www.purcosmetics.com/media/catalog/product/b/r/browder-blonde-swatch.jpg,https://www.purcosmetics.com/media/catalog/product/b/r/browder-brunette-swatch.jpg	22.00 USD	11.00 USD	2017-12-12T00:00:00-05:00/2020-03-05T23:59:59-05:00	in stock	0.03 lb	Pur Cosmetics	10388	new	Pur Category > Makeup > Eyes > Brows,Pur Category > Makeup > Eyes,Pur Category > Makeup > Shop All	 	 	FALSE	 	 	 	10388
951430010	10388	Browder in Blonde	Bold, Defined Brows Bold brows are in! With PÜR's long-lasting brow powder, you don't need to be a makeup artist to get perfectly defined brows. This unique fiber formula adds naturally bold definition to sparse and uneven brows for a look that's always natural, never "drawn on". Use the innovative flocked applicator to groom and sculpt for the perfect arch or reach for your eyeliner brush for double duty use as a smoky eye lining powder.	https://www.purcosmetics.com/browder?utm_source=google_shopping	https://www.purcosmetics.com/media/catalog/product/b/r/browder-blonde-cap-on-appl-to-side.jpg	https://www.purcosmetics.com/media/catalog/product/b/r/browder-blonde-cap-on.jpg,https://www.purcosmetics.com/media/catalog/product/b/r/browder-blonde-swatch.jpg	22.00 USD	11.00 USD	2017-12-12T00:00:00-05:00/2020-03-05T23:59:59-05:00	in stock	0.03 lb	Pur Cosmetics	951430010	new	Pur Category > Makeup > Eyes > Brows,Pur Category > Makeup > Eyes,Pur Category > Makeup > Shop All	 	 	FALSE	 	847137000646	847137000646	951430010
951430020	10388	Browder in Medium Brown	Bold, Defined Brows Bold brows are in! With PÜR's long-lasting brow powder, you don't need to be a makeup artist to get perfectly defined brows. This unique fiber formula adds naturally bold definition to sparse and uneven brows for a look that's always natural, never "drawn on". Use the innovative flocked applicator to groom and sculpt for the perfect arch or reach for your eyeliner brush for double duty use as a smoky eye lining powder.	https://www.purcosmetics.com/browder?utm_source=google_shopping	https://www.purcosmetics.com/media/catalog/product/b/r/browder-medium-brown-cap-on-appl-to-side.jpg	https://www.purcosmetics.com/media/catalog/product/b/r/browder-medium-brown-cap-on.jpg,https://www.purcosmetics.com/media/catalog/product/b/r/browder-medium-brown-swatch.jpg	22.00 USD	11.00 USD	2017-12-12T00:00:00-05:00/2020-03-05T23:59:59-05:00	in stock	0.03 lb	Pur Cosmetics	951430020	new	Pur Category > Makeup > Eyes > Brows,Pur Category > Makeup > Eyes,Pur Category > Makeup > Shop All	 	 	FALSE	 	847137000837	847137000837	951430020
951430030	10388	Browder in Brunette	Bold, Defined Brows Bold brows are in! With PÜR's long-lasting brow powder, you don't need to be a makeup artist to get perfectly defined brows. This unique fiber formula adds naturally bold definition to sparse and uneven brows for a look that's always natural, never "drawn on". Use the innovative flocked applicator to groom and sculpt for the perfect arch or reach for your eyeliner brush for double duty use as a smoky eye lining powder.	https://www.purcosmetics.com/browder?utm_source=google_shopping	https://www.purcosmetics.com/media/catalog/product/b/r/browder-brunette-cap-on-appl-to-side.jpg	https://www.purcosmetics.com/media/catalog/product/b/r/browder-brunette-cap-on.jpg,https://www.purcosmetics.com/media/catalog/product/b/r/browder-brunette-swatch.jpg	22.00 USD	11.00 USD	2017-12-12T00:00:00-05:00/2020-03-05T23:59:59-05:00	in stock	0.03 lb	Pur Cosmetics	951430030	new	Pur Category > Makeup > Eyes > Brows,Pur Category > Makeup > Eyes,Pur Category > Makeup > Shop All	 	 	FALSE	 	847137001049	847137001049	951430030
951172140	 	BB Cream in Dark	The Magic Corrector Your multitasking moisturizer, brightener, primer, concealer and SPF foundation! More than just another beauty balm, BB Cream with SPF 40 protects, corrects and perfects the skin's appearance with clinically advanced plant-based ingredients, like DERMAPUR HP a clarifying corrective from meadowsweet and CLARISKIN II a brightening powerhouse from wheat germ. Ideal for all skin types and concerns, this silicone-free formula works to erase brown spots, blemishes and fine lines from sight while balancing uneven skin tone.	https://www.purcosmetics.com/cc-cream-in-dark?utm_source=google_shopping	https://www.purcosmetics.com/media/catalog/product/c/c/cc-cream-1000x1000_1.jpg	https://www.purcosmetics.com/media/catalog/product/c/c/cc-cream-dark-swatch.jpg	38.00 USD	10.00 USD	2018-10-05T00:00:00-04:00/2020-03-05T23:59:59-05:00	in stock	0.17 lb	Pur Cosmetics	951172140	new	Pur Category > Makeup > Shop All,Pur Category > Sale,Pur Category > Vegan	 	 	FALSE	 	847137008192	847137008192	951172140
951172130	 	BB Cream in Tan	The Magic Corrector Your multitasking moisturizer, brightener, primer, concealer and SPF foundation! More than just another beauty balm, BB Cream with SPF 40 protects, corrects and perfects the skin's appearance with clinically advanced plant-based ingredients, like DERMAPUR HP a clarifying corrective from meadowsweet and CLARISKIN II a brightening powerhouse from wheat germ. Ideal for all skin types and concerns, this silicone-free formula works to erase brown spots, blemishes and fine lines from sight while balancing uneven skin tone.	https://www.purcosmetics.com/cc-cream-in-tan?utm_source=google_shopping	https://www.purcosmetics.com/media/catalog/product/c/c/cc-cream-1000x1000.jpg	https://www.purcosmetics.com/media/catalog/product/c/c/cc-cream-tan-swatch.jpg	38.00 USD	10.00 USD	2018-07-23T00:00:00-04:00/2020-03-05T23:59:59-05:00	in stock	0.17 lb	Pur Cosmetics	951172130	new	Pur Category > Makeup > Shop All,Pur Category > Sale,Pur Category	 	 	FALSE	 	847137007171	847137007171	951172130
951185010	 	Ceretin Serum Age-Defying Concentrate	The Secret Weapon When PÜR introduced its proprietary Ceretin Complex to its mineral makeup formulas, it changed the beauty game forever. Now, the same anti-aging complex that revolutionized our complexion line is finally available as a highly concentrated serum. Use it as a brightening serum, moisturizing serum and an anti-aging serum – it can do it all!	https://www.purcosmetics.com/ceretin-serum?utm_source=google_shopping	https://www.purcosmetics.com/media/catalog/product/c/e/ceretin-serum-cap-on.jpg	 	42.00 USD	 	 	in stock	0.27 lb	Pur Cosmetics	951185010	new	Pur Category > Skincare > Best Sellers,Pur Category > Skincare > Serums,Pur Category > Skincare > Vegan	 	 	FALSE	 	847137014896	847137014896	951185010
10516	 	Chateau Cheek Stain	Brush On Colour Give your cheeks the perfect wash of colour with PÜR’s Château Cheek Stain. This gel-like formula melts onto your skin to give your look a dewy fresh glow. Add a dab for a barely there tint or layer it on for a dramatic flush of moisture-rich colour. Either way you wear the cheek stain blush, your skin will thank you.	https://www.purcosmetics.com/chateau-cheek-stain?utm_source=google_shopping	https://www.purcosmetics.com/media/catalog/product/c/h/chateau-cheeks-stain-rose-1000x1000.jpg	https://www.purcosmetics.com/media/catalog/product/c/h/chateau-cheek-stain-cabernet-cap-off.jpg,https://www.purcosmetics.com/media/catalog/product/c/h/chateau-cheek-stain-prosecco-cap-off.jpg,https://www.purcosmetics.com/media/catalog/product/c/h/chateau-cheek-stain-peach-bellini-cap-off.jpg,https://www.purcosmetics.com/media/catalog/product/c/h/chateau-cheek-stain-rose-cap-off.jpg,https://www.purcosmetics.com/media/catalog/product/c/h/chateau-cheek-stain-rose-cap-on.jpg,https://www.purcosmetics.com/media/catalog/product/c/h/chateau-cheek-stain-cabernet-cap-on.jpg,https://www.purcosmetics.com/media/catalog/product/c/h/chateau-cheek-stain-prosecco-cap-on.jpg,https://www.purcosmetics.com/media/catalog/product/c/h/chateau-cheek-stain-peach-bellini-cap-on.jpg,https://www.purcosmetics.com/media/catalog/product/c/h/chateau-cheek-stain-rose-swatch.jpg	26.00 USD	10.00 USD	2017-06-02T00:00:00-04:00/2020-03-05T23:59:59-05:00	in stock	0.08 lb	Pur Cosmetics	10516	new	Pur Category > Makeup > Shop All,Pur Category > Sale,Pur Category	 	 	FALSE	 	 	 	10516
951336110	10516	Chateau Cheek Stain in Rose	Brush On Colour Give your cheeks the perfect wash of colour with PÜR's age-defying Chateau cheek stain with built-in skincare ingredients. Featuring antioxidant-rich wine extracts to fight age-accelerating free radicals, this gel-like formula melts on your skin to give your look a dewy fresh glow. Add a dab for a barely there tint or layer it on for a dramatic flush of moisture-rich colour. Either way you wear the cheek stain blush, your skin will thank you.	https://www.purcosmetics.com/chateau-cheek-stain?utm_source=google_shopping	https://www.purcosmetics.com/media/catalog/product/c/h/chateau-cheek-stain-rose-cap-on.jpg	https://www.purcosmetics.com/media/catalog/product/c/h/chateau-cheek-stain-rose-cap-off.jpg,https://www.purcosmetics.com/media/catalog/product/c/h/chateau-cheek-stain-rose-swatch.jpg	26.00 USD	10.00 USD	2017-06-02T00:00:00-04:00/2020-03-05T23:59:59-05:00	in stock	0.08 lb	Pur Cosmetics	951336110	new	Pur Category > Makeup > Shop All,Pur Category > Sale,Pur Category	 	 	FALSE	 	847137015541	847137015541	951336110
951336120	10516	Chateau Cheek Stain in Peach Bellini	Brush On Colour Give your cheeks the perfect wash of colour with PÜR's age-defying Chateau cheek stain with built-in skincare ingredients. Featuring antioxidant-rich wine extracts to fight age-accelerating free radicals, this gel-like formula melts on your skin to give your look a dewy fresh glow. Add a dab for a barely there tint or layer it on for a dramatic flush of moisture-rich colour. Either way you wear the cheek stain blush, your skin will thank you.	https://www.purcosmetics.com/chateau-cheek-stain?utm_source=google_shopping	https://www.purcosmetics.com/media/catalog/product/c/h/chateau-cheek-stain-peach-bellini-cap-on.jpg	https://www.purcosmetics.com/media/catalog/product/c/h/chateau-cheek-stain-peach-bellini-cap-off.jpg,https://www.purcosmetics.com/media/catalog/product/c/h/chateau-cheek-stain-peach-bellini-swatch.jpg	26.00 USD	10.00 USD	2017-06-02T00:00:00-04:00/2020-03-05T23:59:59-05:00	in stock	0.08 lb	Pur Cosmetics	951336120	new	Pur Category > Makeup > Shop All,Pur Category > Sale,Pur Category	 	 	FALSE	 	847137000615	847137000615	951336120
951336130	10516	Chateau Cheek Stain in Prosecco	Brush On Colour Give your cheeks the perfect wash of colour with PÜR's age-defying Chateau cheek stain with built-in skincare ingredients. Featuring antioxidant-rich wine extracts to fight age-accelerating free radicals, this gel-like formula melts on your skin to give your look a dewy fresh glow. Add a dab for a barely there tint or layer it on for a dramatic flush of moisture-rich colour. Either way you wear the cheek stain blush, your skin will thank you.	https://www.purcosmetics.com/chateau-cheek-stain?utm_source=google_shopping	https://www.purcosmetics.com/media/catalog/product/c/h/chateau-cheek-stain-prosecco-cap-on.jpg	https://www.purcosmetics.com/media/catalog/product/c/h/chateau-cheek-stain-prosecco-cap-off.jpg,https://www.purcosmetics.com/media/catalog/product/c/h/chateau-cheek-stain-prosecco-swatch.jpg	26.00 USD	10.00 USD	2017-06-02T00:00:00-04:00/2020-03-05T23:59:59-05:00	in stock	0.08 lb	Pur Cosmetics	951336130	new	Pur Category > Makeup > Shop All,Pur Category > Sale,Pur Category	 	 	FALSE	 	847137000929	847137000929	951336130
951336140	10516	Chateau Cheek Stain in Cabernet	Give your cheeks the perfect wash of colour with PÜR's age-defying Chateau cheek stain with built-in skincare ingredients. Featuring antioxidant-rich wine extracts to fight age-accelerating free radicals, this gel-like formula melts on your skin to give your look a dewy fresh glow. Add a dab for a barely there tint or layer it on for a dramatic flush of moisture-rich colour. Either way you wear the cheek stain blush, your skin will thank you.	https://www.purcosmetics.com/chateau-cheek-stain?utm_source=google_shopping	https://www.purcosmetics.com/media/catalog/product/c/h/chateau-cheek-stain-cabernet-cap-on.jpg	https://www.purcosmetics.com/media/catalog/product/c/h/chateau-cheek-stain-cabernet-cap-off.jpg,https://www.purcosmetics.com/media/catalog/product/c/h/chateau-cheek-stain-cabernet-swatch.jpg	26.00 USD	10.00 USD	2017-06-02T00:00:00-04:00/2020-03-05T23:59:59-05:00	in stock	0.08 lb	Pur Cosmetics	951336140	new	Pur Category > Makeup > Shop All,Pur Category > Sale,Pur Category	 	 	FALSE	 	847137001148	847137001148	951336140
10580	 	Chateau Cheeks Cream Blush	Flirty, Dewy Cheeks Highlight and accent your cheeks with velvety cream blush featuring built-in Farm to Jar™ skincare. As you add natural depth and warmth to your complexion with this mineral blush, your skin will drink in the anti-aging benefits.	https://www.purcosmetics.com/chateau-cheeks?utm_source=google_shopping	https://www.purcosmetics.com/media/catalog/product/c/h/chateau-cream-blush-coy-1000x1000.jpg	https://www.purcosmetics.com/media/catalog/product/c/h/chateau-cheeks-cream-blush-coy-open.jpg,https://www.purcosmetics.com/media/catalog/product/c/h/chateau-cheeks-cream-blush-flirt-open.jpg,https://www.purcosmetics.com/media/catalog/product/c/h/chateau-cheeks-cream-blush-flirt-closed.jpg,https://www.purcosmetics.com/media/catalog/product/c/h/chateau-cheeks-cream-blush-coy-closed.jpg,https://www.purcosmetics.com/media/catalog/product/c/h/chateau-cheeks-cream-blush-coy-swatch.jpg,https://www.purcosmetics.com/media/catalog/product/c/h/chateau-cheeks-cream-blush-flirt-swatch.jpg	18.00 USD	10.00 USD	2017-05-23T00:00:00-04:00/2020-03-05T23:59:59-05:00	in stock	0.05 lb	Pur Cosmetics	10580	new	Pur Category > Makeup > Shop All,Pur Category > Makeup > Cheeks,Pur Category > Sale	 	 	FALSE	 	 	 	10580
951334210	10580	Chateau Cheeks Cream Blush in Flirt	Flirty, Dewy Cheeks Highlight and accent your cheeks with velvety colour cream blush featuring built-in Farm to Jar™ skincare. As you add natural depth and warmth to your complexion with this mineral blush, your skin will drink in the anti-aging benefits of vine-fresh Resveratrox® and Vitisin, harvested exclusively for PÜR from Bordeaux's famed wine region. Taken from the finest wine-producing French grapes, these key ingredients have been shown to soften the look of lines and brighten the skin's appearance. Chateau Cheeks Cream Blush contains NO mineral oil, petrolatum or lanolin oil and is non-comedogenic.	https://www.purcosmetics.com/chateau-cheeks?utm_source=google_shopping	https://www.purcosmetics.com/media/catalog/product/c/h/chateau-cheeks-cream-blush-flirt-closed.jpg	https://www.purcosmetics.com/media/catalog/product/c/h/chateau-cheeks-cream-blush-flirt-open.jpg,https://www.purcosmetics.com/media/catalog/product/c/h/chateau-cheeks-cream-blush-flirt-swatch.jpg	18.00 USD	10.00 USD	2017-05-23T00:00:00-04:00/2020-03-05T23:59:59-05:00	in stock	0.06 lb	Pur Cosmetics	951334210	new	Pur Category > Makeup > Shop All,Pur Category > Makeup > Cheeks,Pur Category > Sale	 	 	FALSE	 	847137011437	847137011437	951334210
951334220	10580	Chateau Cheeks Cream Blush in Coy	Flirty, Dewy Cheeks Highlight and accent your cheeks with velvety colour cream blush featuring built-in Farm to Jar™ skincare. As you add natural depth and warmth to your complexion with this mineral blush, your skin will drink in the anti-aging benefits of vine-fresh Resveratrox® and Vitisin, harvested exclusively for PÜR from Bordeaux's famed wine region. Taken from the finest wine-producing French grapes, these key ingredients have been shown to soften the look of lines and brighten the skin's appearance. Chateau Cheeks Cream Blush contains NO mineral oil, petrolatum or lanolin oil and is non-comedogenic.	https://www.purcosmetics.com/chateau-cheeks?utm_source=google_shopping	https://www.purcosmetics.com/media/catalog/product/c/h/chateau-cheeks-cream-blush-coy-closed.jpg	https://www.purcosmetics.com/media/catalog/product/c/h/chateau-cheeks-cream-blush-coy-open.jpg,https://www.purcosmetics.com/media/catalog/product/c/h/chateau-cheeks-cream-blush-coy-swatch.jpg	18.00 USD	10.00 USD	2017-05-23T00:00:00-04:00/2020-03-05T23:59:59-05:00	in stock	0.05 lb	Pur Cosmetics	951334220	new	Pur Category > Makeup > Shop All,Pur Category > Makeup > Cheeks,Pur Category > Sale	 	 	FALSE	 	847137011444	847137011444	951334220
10006	 	Château Cheeks Powder Blush	Get a gorgeous, age-defying glow with this pressed powder blush with built-in Farm to Jar™ skincare! As you highlight and accentuate your natural features with a mineral blush, your skin will drink in the anti-aging benefits with a flirty, flush of colour.	https://www.purcosmetics.com/chateau-cheeks-powder?utm_source=google_shopping	https://www.purcosmetics.com/media/catalog/product/c/h/chateau-kiss-powder-blush-kinky-1000x1000.jpg	https://www.purcosmetics.com/media/catalog/product/c/h/chateau-cheeks-powder-blush-sassy-open.jpg,https://www.purcosmetics.com/media/catalog/product/c/h/chateau-cheeks-powder-blush-kinky-open.jpg,https://www.purcosmetics.com/media/catalog/product/c/h/chateau-cheeks-powder-blush-tease-open.jpg,https://www.purcosmetics.com/media/catalog/product/c/h/chateau-cheeks-powder-blush-savvy-open.jpg,https://www.purcosmetics.com/media/catalog/product/c/h/chateau-cheeks-powder-blush-sassy-closed.jpg,https://www.purcosmetics.com/media/catalog/product/c/h/chateau-cheeks-powder-blush-kinky-closed.jpg,https://www.purcosmetics.com/media/catalog/product/c/h/chateau-cheeks-powder-blush-savvy-closed.jpg,https://www.purcosmetics.com/media/catalog/product/c/h/chateau-cheeks-powder-blush-tease-closed.jpg,https://www.purcosmetics.com/media/catalog/product/c/h/chateau-cheeks-powder-blush-sassy-swatch.jpg	18.00 USD	10.00 USD	2017-11-02T00:00:00-04:00/2020-03-05T23:59:59-05:00	in stock	0.06 lb	Pur Cosmetics	10006	new	Pur Category > Makeup > Shop All,Pur Category > Makeup > Cheeks,Pur Category > Sale	 	 	FALSE	 	 	 	10006
951334130	10006	Chateau Cheeks Powder Blush in Sassy	Brush On Colour Get a gorgeous, age-defying glow with this pressed powder blush with built-in Farm to Jar™ skincare! As you highlight and accentuate your natural features with a mineral blush, your skin will drink in the anti-aging benefits of vine-fresh Resveratrox® and Vitisin, harvested exclusively for PÜR from Bordeaux's famed wine region. Taken from the vines, shoots and skin of wine-producing grapes, these key ingredients have been shown to soften the look of lines and brighten the skin's appearance.	https://www.purcosmetics.com/chateau-cheeks-powder?utm_source=google_shopping	https://www.purcosmetics.com/media/catalog/product/c/h/chateau-cheeks-powder-blush-sassy-closed.jpg	https://www.purcosmetics.com/media/catalog/product/c/h/chateau-cheeks-powder-blush-sassy-open.jpg,https://www.purcosmetics.com/media/catalog/product/c/h/chateau-cheeks-powder-blush-sassy-swatch.jpg	18.00 USD	10.00 USD	2017-11-02T00:00:00-04:00/2020-03-05T23:59:59-05:00	in stock	0.06 lb	Pur Cosmetics	951334130	new	Pur Category > Makeup > Shop All,Pur Category > Makeup > Cheeks,Pur Category > Sale	 	 	FALSE	 	847137011413	847137011413	951334130
951334140	10006	Chateau Cheeks Powder Blush in Tease	Brush On Colour Get a gorgeous, age-defying glow with this pressed powder blush with built-in Farm to Jar™ skincare! As you highlight and accentuate your natural features with a mineral blush, your skin will drink in the anti-aging benefits of vine-fresh Resveratrox® and Vitisin, harvested exclusively for PÜR from Bordeaux's famed wine region. Taken from the vines, shoots and skin of wine-producing grapes, these key ingredients have been shown to soften the look of lines and brighten the skin's appearance.	https://www.purcosmetics.com/chateau-cheeks-powder?utm_source=google_shopping	https://www.purcosmetics.com/media/catalog/product/c/h/chateau-cheeks-powder-blush-tease-closed.jpg	https://www.purcosmetics.com/media/catalog/product/c/h/chateau-cheeks-powder-blush-tease-open.jpg,https://www.purcosmetics.com/media/catalog/product/c/h/chateau-cheeks-powder-blush-tease-swatch.jpg	18.00 USD	10.00 USD	2017-11-02T00:00:00-04:00/2020-03-05T23:59:59-05:00	in stock	0.06 lb	Pur Cosmetics	951334140	new	Pur Category > Makeup > Shop All,Pur Category > Makeup > Cheeks,Pur Category > Sale	 	 	FALSE	 	847137011420	847137011420	951334140
10644	 	Chateau de Vine Cream Lipstick	Perfect your pout with gorgeous, anti-aging lipstick in a delicious array of intoxicating shades! Château de Vine lipsticks glide on effortlessly in this one-of-a-kind, anti-aging lipstick formula that will have you toasting to younger-looking lips with every kiss.	https://www.purcosmetics.com/chateau-de-vine?utm_source=google_shopping	https://www.purcosmetics.com/media/catalog/product/c/h/chateau-de-vine-lipstick-fashionista-cap-off-to-side.jpg	https://www.purcosmetics.com/media/catalog/product/c/h/chateau-de-vine-lipstick-showoff-cap-off-to-side.jpg,https://www.purcosmetics.com/media/catalog/product/c/h/chateau-de-vine-lipstick-starlet-cap-off-to-side.jpg,https://www.purcosmetics.com/media/catalog/product/c/h/chateau-de-vine-lipstick-a-lister-cap-off-to-side.jpg,https://www.purcosmetics.com/media/catalog/product/c/h/chateau-de-vine-lipstick-georgia-peach-cap-off-to-side.jpg,https://www.purcosmetics.com/media/catalog/product/c/h/chateau-de-vine-lipstick-debutante-cap-off-to-side.jpg,https://www.purcosmetics.com/media/catalog/product/c/h/chateau-de-vine-lipstick-shopaholic-cap-off-to-side.jpg,https://www.purcosmetics.com/media/catalog/product/c/h/chateau-de-vine-lipstick-smooth-talker-cap-off-to-side.jpg,https://www.purcosmetics.com/media/catalog/product/c/h/chateau-de-vine-lipstick-socialite-cap-off-to-side.jpg,https://www.purcosmetics.com/media/catalog/product/c/h/chateau-de-vine-lipstick-jezebel-cap-off-to-side.jpg	18.00 USD	6.00 USD	2018-01-23T00:00:00-05:00/2020-03-05T23:59:59-05:00	in stock	0.05 lb	Pur Cosmetics	10644	new	Pur Category > Makeup > Shop All,Pur Category > Makeup > Lips,Pur Category > Sale	 	 	FALSE	 	 	 	10644
951550270	10644	Chateau de Vine Cream Lipstick in Shopaholic	Perfect your pout with gorgeous, anti-aging lipstick colour in a delicious array of intoxicating mineral shades! Pur's Chateau de Vine lipsticks glide on effortlessly for a full range of flawless looks from bold, full lips to a barely there stain. Using exclusive Farm to Jar ingredients including age-defying Resveratrox and Vitisin, freshly harvested from Bordeaux's finest wine-producing grapes this one-of-a-kind formula reverses visible signs of early aging, like lip lines and wrinkles, so you can toast to younger-looking lips with every kiss. Paraben-free. Gluten-free.	https://www.purcosmetics.com/chateau-de-vine?utm_source=google_shopping	https://www.purcosmetics.com/media/catalog/product/c/h/chateau-de-vine-lipstick-shopaholic-cap-off-to-side.jpg	https://www.purcosmetics.com/media/catalog/product/c/h/chateau-de-vine-lipstick-shopaholic-cap-on.jpg,https://www.purcosmetics.com/media/catalog/product/c/h/chateau-de-vine-lipstick-shopaholic-swatch.jpg	18.00 USD	6.00 USD	2018-01-23T00:00:00-05:00/2020-03-05T23:59:59-05:00	in stock	0.05 lb	Pur Cosmetics	951550270	new	Pur Category > Makeup > Shop All,Pur Category > Makeup > Lips,Pur Category > Sale	 	 	FALSE	 	847137011192	847137011192	951550270
951550280	10644	Chateau de Vine Cream Lipstick in Debutante	Perfect your pout with gorgeous, anti-aging lipstick colour in a delicious array of intoxicating mineral shades! Pur's Chateau de Vine lipsticks glide on effortlessly for a full range of flawless looks from bold, full lips to a barely there stain. Using exclusive Farm to Jar ingredients including age-defying Resveratrox and Vitisin, freshly harvested from Bordeaux's finest wine-producing grapes this one-of-a-kind formula reverses visible signs of early aging, like lip lines and wrinkles, so you can toast to younger-looking lips with every kiss. Paraben-free. Gluten-free.	https://www.purcosmetics.com/chateau-de-vine?utm_source=google_shopping	https://www.purcosmetics.com/media/catalog/product/c/h/chateau-de-vine-lipstick-debutante-cap-off-to-side.jpg	https://www.purcosmetics.com/media/catalog/product/c/h/chateau-de-vine-lipstick-debutante-cap-on.jpg,https://www.purcosmetics.com/media/catalog/product/c/h/chateau-de-vine-lipstick-debutante-swatch.jpg	18.00 USD	6.00 USD	2018-01-23T00:00:00-05:00/2020-03-05T23:59:59-05:00	out of stock	0.05 lb	Pur Cosmetics	951550280	new	Pur Category > Makeup > Shop All,Pur Category > Makeup > Lips,Pur Category > Sale	 	 	FALSE	 	847137011208	847137011208	951550280
951550290	10644	Chateau de Vine Cream Lipstick in A-Lister	Perfect your pout with gorgeous, anti-aging lipstick colour in a delicious array of intoxicating mineral shades! Pur's Chateau de Vine lipsticks glide on effortlessly for a full range of flawless looks from bold, full lips to a barely there stain. Using exclusive Farm to Jar ingredients including age-defying Resveratrox and Vitisin, freshly harvested from Bordeaux's finest wine-producing grapes this one-of-a-kind formula reverses visible signs of early aging, like lip lines and wrinkles, so you can toast to younger-looking lips with every kiss. Paraben-free. Gluten-free.	https://www.purcosmetics.com/chateau-de-vine?utm_source=google_shopping	https://www.purcosmetics.com/media/catalog/product/c/h/chateau-de-vine-lipstick-a-lister-cap-off-to-side.jpg	https://www.purcosmetics.com/media/catalog/product/c/h/chateau-de-vine-lipstick-a-lister-swatch_1_2.jpg,https://www.purcosmetics.com/media/catalog/product/c/h/chateau-de-vine-lipstick-a-lister-cap-on_1.jpg	18.00 USD	6.00 USD	2018-01-23T00:00:00-05:00/2020-03-05T23:59:59-05:00	in stock	0.05 lb	Pur Cosmetics	951550290	new	Pur Category > Makeup > Shop All,Pur Category > Makeup > Lips,Pur Category > Sale	 	 	FALSE	 	847137011215	847137011215	951550290
951550300	10644	Chateau de Vine Cream Lipstick in Showoff	Perfect your pout with gorgeous, anti-aging lipstick colour in a delicious array of intoxicating mineral shades! Pur's Chateau de Vine lipsticks glide on effortlessly for a full range of flawless looks from bold, full lips to a barely there stain. Using exclusive Farm to Jar ingredients including age-defying Resveratrox and Vitisin, freshly harvested from Bordeaux's finest wine-producing grapes this one-of-a-kind formula reverses visible signs of early aging, like lip lines and wrinkles, so you can toast to younger-looking lips with every kiss. Paraben-free. Gluten-free.	https://www.purcosmetics.com/chateau-de-vine?utm_source=google_shopping	https://www.purcosmetics.com/media/catalog/product/c/h/chateau-de-vine-lipstick-showoff-cap-off-to-side.jpg	https://www.purcosmetics.com/media/catalog/product/c/h/chateau-de-vine-lipstick-showoff-cap-on.jpg,https://www.purcosmetics.com/media/catalog/product/c/h/chateau-de-vine-lipstick-showoff-swatch.jpg	18.00 USD	6.00 USD	2018-01-23T00:00:00-05:00/2020-03-05T23:59:59-05:00	in stock	0.05 lb	Pur Cosmetics	951550300	new	Pur Category > Makeup > Shop All,Pur Category > Makeup > Lips,Pur Category > Sale	 	 	FALSE	 	847137011222	847137011222	951550300
951550320	10644	Chateau de Vine Cream Lipstick in Smooth Talker	Perfect your pout with gorgeous, anti-aging lipstick colour in a delicious array of intoxicating mineral shades! Pur's Chateau de Vine lipsticks glide on effortlessly for a full range of flawless looks from bold, full lips to a barely there stain. Using exclusive Farm to Jar ingredients including age-defying Resveratrox and Vitisin, freshly harvested from Bordeaux's finest wine-producing grapes this one-of-a-kind formula reverses visible signs of early aging, like lip lines and wrinkles, so you can toast to younger-looking lips with every kiss. Paraben-free. Gluten-free.	https://www.purcosmetics.com/chateau-de-vine?utm_source=google_shopping	https://www.purcosmetics.com/media/catalog/product/c/h/chateau-de-vine-lipstick-smooth-talker-cap-off-to-side.jpg	https://www.purcosmetics.com/media/catalog/product/c/h/chateau-de-vine-lipstick-smooth-talker-cap-on.jpg,https://www.purcosmetics.com/media/catalog/product/c/h/chateau-de-vine-lipstick-smooth-talker-swatch.jpg	18.00 USD	6.00 USD	2018-01-23T00:00:00-05:00/2020-03-05T23:59:59-05:00	in stock	0.05 lb	Pur Cosmetics	951550320	new	Pur Category > Makeup > Shop All,Pur Category > Makeup > Lips,Pur Category > Sale	 	 	FALSE	 	847137011246	847137011246	951550320
951550330	10644	Chateau de Vine Cream Lipstick in Georgia Peach	Perfect your pout with gorgeous, anti-aging lipstick colour in a delicious array of intoxicating mineral shades! Pur's Chateau de Vine lipsticks glide on effortlessly for a full range of flawless looks from bold, full lips to a barely there stain. Using exclusive Farm to Jar ingredients including age-defying Resveratrox and Vitisin, freshly harvested from Bordeaux's finest wine-producing grapes this one-of-a-kind formula reverses visible signs of early aging, like lip lines and wrinkles, so you can toast to younger-looking lips with every kiss. Paraben-free. Gluten-free.	https://www.purcosmetics.com/chateau-de-vine?utm_source=google_shopping	https://www.purcosmetics.com/media/catalog/product/c/h/chateau-de-vine-lipstick-georgia-peach-cap-off-to-side.jpg	https://www.purcosmetics.com/media/catalog/product/c/h/chateau-de-vine-lipstick-georgia-peach-cap-on.jpg,https://www.purcosmetics.com/media/catalog/product/c/h/chateau-de-vine-lipstick-georgia-peach-swatch.jpg	18.00 USD	6.00 USD	2018-01-23T00:00:00-05:00/2020-03-05T23:59:59-05:00	in stock	0.05 lb	Pur Cosmetics	951550330	new	Pur Category > Makeup > Shop All,Pur Category > Makeup > Lips,Pur Category > Sale	 	 	FALSE	 	847137011253	847137011253	951550330
951550340	10644	Chateau de Vine Cream Lipstick in Starlet	Perfect your pout with gorgeous, anti-aging lipstick colour in a delicious array of intoxicating mineral shades! Pur's Chateau de Vine lipsticks glide on effortlessly for a full range of flawless looks from bold, full lips to a barely there stain. Using exclusive Farm to Jar ingredients including age-defying Resveratrox and Vitisin, freshly harvested from Bordeaux's finest wine-producing grapes this one-of-a-kind formula reverses visible signs of early aging, like lip lines and wrinkles, so you can toast to younger-looking lips with every kiss. Paraben-free. Gluten-free.	https://www.purcosmetics.com/chateau-de-vine?utm_source=google_shopping	https://www.purcosmetics.com/media/catalog/product/c/h/chateau-de-vine-lipstick-starlet-cap-off-to-side.jpg	https://www.purcosmetics.com/media/catalog/product/c/h/chateau-de-vine-lipstick-starlet-cap-on.jpg,https://www.purcosmetics.com/media/catalog/product/c/h/chateau-de-vine-lipstick-starlet-swatch.jpg	18.00 USD	6.00 USD	2018-01-23T00:00:00-05:00/2020-03-05T23:59:59-05:00	in stock	0.05 lb	Pur Cosmetics	951550340	new	Pur Category > Makeup > Shop All,Pur Category > Makeup > Lips,Pur Category > Sale	 	 	FALSE	 	847137011260	847137011260	951550340
951550350	10644	Chateau de Vine Cream Lipstick in Socialite	Perfect your pout with gorgeous, anti-aging lipstick colour in a delicious array of intoxicating mineral shades! Pur's Chateau de Vine lipsticks glide on effortlessly for a full range of flawless looks from bold, full lips to a barely there stain. Using exclusive Farm to Jar ingredients including age-defying Resveratrox and Vitisin, freshly harvested from Bordeaux's finest wine-producing grapes this one-of-a-kind formula reverses visible signs of early aging, like lip lines and wrinkles, so you can toast to younger-looking lips with every kiss. Paraben-free. Gluten-free.	https://www.purcosmetics.com/chateau-de-vine?utm_source=google_shopping	https://www.purcosmetics.com/media/catalog/product/c/h/chateau-de-vine-lipstick-socialite-cap-off-to-side.jpg	https://www.purcosmetics.com/media/catalog/product/c/h/chateau-de-vine-lipstick-socialite-cap-on.jpg,https://www.purcosmetics.com/media/catalog/product/c/h/chateau-de-vine-lipstick-socialite-swatch.jpg	18.00 USD	6.00 USD	2018-01-23T00:00:00-05:00/2020-03-05T23:59:59-05:00	in stock	0.05 lb	Pur Cosmetics	951550350	new	Pur Category > Makeup > Shop All,Pur Category > Makeup > Lips,Pur Category > Sale	 	 	FALSE	 	847137011277	847137011277	951550350
951550360	10644	Chateau de Vine Cream Lipstick in Fashionista	Perfect your pout with gorgeous, anti-aging lipstick colour in a delicious array of intoxicating mineral shades! Pur's Chateau de Vine lipsticks glide on effortlessly for a full range of flawless looks from bold, full lips to a barely there stain. Using exclusive Farm to Jar ingredients including age-defying Resveratrox and Vitisin, freshly harvested from Bordeaux's finest wine-producing grapes this one-of-a-kind formula reverses visible signs of early aging, like lip lines and wrinkles, so you can toast to younger-looking lips with every kiss. Paraben-free. Gluten-free.	https://www.purcosmetics.com/chateau-de-vine?utm_source=google_shopping	https://www.purcosmetics.com/media/catalog/product/c/h/chateau-de-vine-lipstick-fashionista-cap-off-to-side.jpg	https://www.purcosmetics.com/media/catalog/product/c/h/chateau-de-vine-lipstick-fashionista-cap-on.jpg,https://www.purcosmetics.com/media/catalog/product/c/h/chateau-de-vine-lipstick-fashionista-swatch.jpg	18.00 USD	6.00 USD	2018-01-23T00:00:00-05:00/2020-03-05T23:59:59-05:00	in stock	0.05 lb	Pur Cosmetics	951550360	new	Pur Category > Makeup > Shop All,Pur Category > Makeup > Lips,Pur Category > Sale	 	 	FALSE	 	847137011284	847137011284	951550360
951550310	 	Chateau de Vine Cream Lipstick in Jezebel	Perfect your pout with gorgeous, anti-aging lipstick colour in a delicious array of intoxicating mineral shades! Pur's Chateau de Vine lipsticks glide on effortlessly for a full range of flawless looks from bold, full lips to a barely there stain. Using exclusive Farm to Jar ingredients including age-defying Resveratrox and Vitisin, freshly harvested from Bordeaux's finest wine-producing grapes this one-of-a-kind formula reverses visible signs of early aging, like lip lines and wrinkles, so you can toast to younger-looking lips with every kiss. Paraben-free. Gluten-free.	https://www.purcosmetics.com/chateau-de-vine-in-jezebel?utm_source=google_shopping	https://www.purcosmetics.com/media/catalog/product/c/h/chateau-de-vine-lipstick-jezebel-cap-off-to-side.jpg	https://www.purcosmetics.com/media/catalog/product/c/h/chateau-de-vine-lipstick-jezebel-cap-on.jpg,https://www.purcosmetics.com/media/catalog/product/c/h/chateau-de-vine-lipstick-jezebel-swatch.jpg	18.00 USD	6.00 USD	2018-04-19T00:00:00-04:00/2020-03-05T23:59:59-05:00	in stock	0.05 lb	Pur Cosmetics	951550310	new	Pur Category > Makeup > Shop All,Pur Category > Makeup > Lips,Pur Category > Sale	 	 	FALSE	 	847137011239	847137011239	951550310
10708	 	Chateau Kisses Lip Gloss	Full Pouts Await This one-of-a-kind, lip-plumping, age-defying lip gloss packs a pout-perfecting punch. Never sticky or tacky, this luscious, lip-plumping lip gloss formula provides hours of sultry shine along with visibly softer and smoother lips — even after the gloss comes off!	https://www.purcosmetics.com/chateau-kisses?utm_source=google_shopping	https://www.purcosmetics.com/media/catalog/product/c/h/chateau-kiss-tickled-1000x1000.jpg	https://www.purcosmetics.com/media/catalog/product/c/h/chateau-kisses-lip-gloss-scandalous-cap-on-appl-to-side.jpg,https://www.purcosmetics.com/media/catalog/product/c/h/chateau-kisses-lip-gloss-spoiled-cap-on-appl-to-side.jpg,https://www.purcosmetics.com/media/catalog/product/c/h/chateau-kisses-lip-gloss-foxy-cap-on-appl-to-side.jpg,https://www.purcosmetics.com/media/catalog/product/c/h/chateau-kisses-lip-gloss-glitzy-cap-on-appl-to-side.jpg,https://www.purcosmetics.com/media/catalog/product/c/h/chateau-kisses-lip-gloss-lovestruck-cap-on-appl-to-side.jpg,https://www.purcosmetics.com/media/catalog/product/c/h/chateau-kisses-lip-gloss-bossy-cap-on-appl-to-side.jpg,https://www.purcosmetics.com/media/catalog/product/c/h/chateau-kisses-lip-gloss-exposed-cap-on-appl-to-side.jpg,https://www.purcosmetics.com/media/catalog/product/c/h/chateau-kisses-lip-gloss-tickled-cap-on-appl-to-side.jpg,https://www.purcosmetics.com/media/catalog/product/c/h/chateau-kisses-lip-gloss-spoiled-cap-on.jpg,https://www.purcosmetics.com/media/catalog/product/c/h/chateau-kisses-lip-gloss-foxy-cap-on.jpg	18.00 USD	6.00 USD	2017-11-30T00:00:00-05:00/2020-03-05T23:59:59-05:00	in stock	0.06 lb	Pur Cosmetics	10708	new	Pur Category > Makeup > Shop All,Pur Category > Makeup > Lips,Pur Category > Sale	 	 	FALSE	 	 	 	10708
951551260	10708	Chateau Kisses Lip Gloss in Scandalous	Full Pouts Await These one-of-a-kind lip glosses pack a pout-perfecting punch with age-defying Resveratrox, freshly harvested from Bordeaux's finest wine-producing grapes! This exclusive Farm to Jar ingredient hydrates dry lips and helps reverse visible signs of early aging, including lip lines and wrinkles. Never sticky or tacky, this luscious lip-plumping formula provides hours of dewy colour along with visibly softer, smoother lips even after the gloss comes off! Paraben-free. Gluten-free.	https://www.purcosmetics.com/chateau-kisses?utm_source=google_shopping	https://www.purcosmetics.com/media/catalog/product/c/h/chateau-kisses-lip-gloss-scandalous-cap-on-appl-to-side.jpg	https://www.purcosmetics.com/media/catalog/product/c/h/chateau-kisses-lip-gloss-scandalous-cap-on.jpg,https://www.purcosmetics.com/media/catalog/product/c/h/chateau-kisses-lip-gloss-scandalous-swatch.jpg	18.00 USD	6.00 USD	2017-11-30T00:00:00-05:00/2020-03-05T23:59:59-05:00	out of stock	0.06 lb	Pur Cosmetics	951551260	new	Pur Category > Makeup > Shop All,Pur Category > Makeup > Lips,Pur Category > Sale	 	 	FALSE	 	847137011291	847137011291	951551260
951551270	10708	Chateau Kisses Lip Gloss in Bossy	Full Pouts Await These one-of-a-kind lip glosses pack a pout-perfecting punch with age-defying Resveratrox, freshly harvested from Bordeaux's finest wine-producing grapes! This exclusive Farm to Jar ingredient hydrates dry lips and helps reverse visible signs of early aging, including lip lines and wrinkles. Never sticky or tacky, this luscious lip-plumping formula provides hours of dewy colour along with visibly softer, smoother lips even after the gloss comes off! Paraben-free. Gluten-free.	https://www.purcosmetics.com/chateau-kisses?utm_source=google_shopping	https://www.purcosmetics.com/media/catalog/product/c/h/chateau-kisses-lip-gloss-bossy-cap-on-appl-to-side.jpg	https://www.purcosmetics.com/media/catalog/product/c/h/chateau-kisses-lip-gloss-bossy-cap-on.jpg,https://www.purcosmetics.com/media/catalog/product/c/h/chateau-kisses-lip-gloss-bossy-swatch.jpg	18.00 USD	6.00 USD	2017-11-30T00:00:00-05:00/2020-03-05T23:59:59-05:00	in stock	0.06 lb	Pur Cosmetics	951551270	new	Pur Category > Makeup > Shop All,Pur Category > Makeup > Lips,Pur Category > Sale	 	 	FALSE	 	847137011307	847137011307	951551270
951551280	10708	Chateau Kisses Lip Gloss in Foxy	Full Pouts Await These one-of-a-kind lip glosses pack a pout-perfecting punch with age-defying Resveratrox, freshly harvested from Bordeaux's finest wine-producing grapes! This exclusive Farm to Jar ingredient hydrates dry lips and helps reverse visible signs of early aging, including lip lines and wrinkles. Never sticky or tacky, this luscious lip-plumping formula provides hours of dewy colour along with visibly softer, smoother lips even after the gloss comes off! Paraben-free. Gluten-free.	https://www.purcosmetics.com/chateau-kisses?utm_source=google_shopping	https://www.purcosmetics.com/media/catalog/product/c/h/chateau-kisses-lip-gloss-foxy-cap-on-appl-to-side.jpg	https://www.purcosmetics.com/media/catalog/product/c/h/chateau-kisses-lip-gloss-foxy-cap-on.jpg,https://www.purcosmetics.com/media/catalog/product/c/h/chateau-kisses-lip-gloss-foxy-swatch.jpg	18.00 USD	6.00 USD	2017-11-30T00:00:00-05:00/2020-03-05T23:59:59-05:00	in stock	0.06 lb	Pur Cosmetics	951551280	new	Pur Category > Makeup > Shop All,Pur Category > Makeup > Lips,Pur Category > Sale	 	 	FALSE	 	847137011314	847137011314	951551280
951551290	10708	Chateau Kisses Lip Gloss in Tickled	Full Pouts Await These one-of-a-kind lip glosses pack a pout-perfecting punch with age-defying Resveratrox, freshly harvested from Bordeaux's finest wine-producing grapes! This exclusive Farm to Jar ingredient hydrates dry lips and helps reverse visible signs of early aging, including lip lines and wrinkles. Never sticky or tacky, this luscious lip-plumping formula provides hours of dewy colour along with visibly softer, smoother lips even after the gloss comes off! Paraben-free. Gluten-free.	https://www.purcosmetics.com/chateau-kisses?utm_source=google_shopping	https://www.purcosmetics.com/media/catalog/product/c/h/chateau-kisses-lip-gloss-tickled-cap-on-appl-to-side.jpg	https://www.purcosmetics.com/media/catalog/product/c/h/chateau-kisses-lip-gloss-tickled-cap-on.jpg,https://www.purcosmetics.com/media/catalog/product/c/h/chateau-kisses-lip-gloss-tickled-swatch.jpg	18.00 USD	6.00 USD	2017-11-30T00:00:00-05:00/2020-03-05T23:59:59-05:00	in stock	0.06 lb	Pur Cosmetics	951551290	new	Pur Category > Makeup > Shop All,Pur Category > Makeup > Lips,Pur Category > Sale	 	 	FALSE	 	847137011321	847137011321	951551290
951551300	10708	Chateau Kisses Lip Gloss in Lovestruck	Full Pouts Await These one-of-a-kind lip glosses pack a pout-perfecting punch with age-defying Resveratrox, freshly harvested from Bordeaux's finest wine-producing grapes! This exclusive Farm to Jar ingredient hydrates dry lips and helps reverse visible signs of early aging, including lip lines and wrinkles. Never sticky or tacky, this luscious lip-plumping formula provides hours of dewy colour along with visibly softer, smoother lips even after the gloss comes off! Paraben-free. Gluten-free.	https://www.purcosmetics.com/chateau-kisses?utm_source=google_shopping	https://www.purcosmetics.com/media/catalog/product/c/h/chateau-kisses-lip-gloss-lovestruck-cap-on-appl-to-side.jpg	https://www.purcosmetics.com/media/catalog/product/c/h/chateau-kisses-lip-gloss-lovestruck-cap-on.jpg,https://www.purcosmetics.com/media/catalog/product/c/h/chateau-kisses-lip-gloss-lovestruck-swatch.jpg	18.00 USD	6.00 USD	2017-11-30T00:00:00-05:00/2020-03-05T23:59:59-05:00	in stock	0.06 lb	Pur Cosmetics	951551300	new	Pur Category > Makeup > Shop All,Pur Category > Makeup > Lips,Pur Category > Sale	 	 	FALSE	 	847137011338	847137011338	951551300
951551310	10708	Chateau Kisses Lip Gloss in Spoiled	High-Shine In A Jumbo Pencil These one-of-a-kind lip glosses pack a pout-perfecting punch with age-defying Resveratrox, freshly harvested from Bordeaux's finest wine-producing grapes! This exclusive Farm to Jar ingredient hydrates dry lips and helps reverse visible signs of early aging, including lip lines and wrinkles. Never sticky or tacky, this luscious lip-plumping formula provides hours of dewy colour along with visibly softer, smoother lips even after the gloss comes off! Paraben-free. Gluten-free.	https://www.purcosmetics.com/chateau-kisses?utm_source=google_shopping	https://www.purcosmetics.com/media/catalog/product/c/h/chateau-kisses-lip-gloss-spoiled-cap-on-appl-to-side.jpg	https://www.purcosmetics.com/media/catalog/product/c/h/chateau-kisses-lip-gloss-spoiled-cap-on.jpg,https://www.purcosmetics.com/media/catalog/product/c/h/chateau-kisses-lip-gloss-spoiled-swatch.jpg	18.00 USD	6.00 USD	2017-11-30T00:00:00-05:00/2020-03-05T23:59:59-05:00	in stock	0.06 lb	Pur Cosmetics	951551310	new	Pur Category > Makeup > Shop All,Pur Category > Makeup > Lips,Pur Category > Sale	 	 	FALSE	 	847137011345	847137011345	951551310
951551330	 	Chateau Kisses Lip Gloss in Glitzy	Full Pouts Await These one-of-a-kind lip glosses pack a pout-perfecting punch with age-defying Resveratrox, freshly harvested from Bordeaux's finest wine-producing grapes! This exclusive Farm to Jar ingredient hydrates dry lips and helps reverse visible signs of early aging, including lip lines and wrinkles. Never sticky or tacky, this luscious lip-plumping formula provides hours of dewy colour along with visibly softer, smoother lips even after the gloss comes off! Paraben-free. Gluten-free.	https://www.purcosmetics.com/chateau-kisses-in-glitzy?utm_source=google_shopping	https://www.purcosmetics.com/media/catalog/product/c/h/chateau-kisses-lip-gloss-glitzy-cap-on-appl-to-side.jpg	https://www.purcosmetics.com/media/catalog/product/c/h/chateau-kisses-lip-gloss-glitzy-cap-on.jpg,https://www.purcosmetics.com/media/catalog/product/c/h/chateau-kisses-lip-gloss-glitzy-swatch.jpg	18.00 USD	6.00 USD	2018-07-12T00:00:00-04:00/2020-03-05T23:59:59-05:00	out of stock	0.06 lb	Pur Cosmetics	951551330	new	Pur Category > Makeup > Shop All,Pur Category > Makeup > Lips,Pur Category > Sale	 	 	FALSE	 	847137011369	847137011369	951551330
951551320	 	Chateau Kisses Lip Gloss in Exposed	Full Pouts Await These one-of-a-kind lip glosses pack a pout-perfecting punch with age-defying Resveratrox, freshly harvested from Bordeaux's finest wine-producing grapes! This exclusive Farm to Jar ingredient hydrates dry lips and helps reverse visible signs of early aging, including lip lines and wrinkles. Never sticky or tacky, this luscious lip-plumping formula provides hours of dewy colour along with visibly softer, smoother lips even after the gloss comes off! Paraben-free. Gluten-free.	https://www.purcosmetics.com/chateau-kisses-in-exposed?utm_source=google_shopping	https://www.purcosmetics.com/media/catalog/product/c/h/chateau-kisses-lip-gloss-exposed-cap-on-appl-to-side.jpg	https://www.purcosmetics.com/media/catalog/product/c/h/chateau-kisses-lip-gloss-exposed-cap-on.jpg,https://www.purcosmetics.com/media/catalog/product/c/h/chateau-kisses-lip-gloss-exposed-swatch.jpg	18.00 USD	6.00 USD	2018-04-16T00:00:00-04:00/2020-03-05T23:59:59-05:00	out of stock	0.06 lb	Pur Cosmetics	951551320	new	Pur Category > Makeup > Shop All,Pur Category > Makeup > Lips,Pur Category	 	 	FALSE	 	847137011352	847137011352	951551320
951662010	 	Chisel Brush	Expert Foundation Application The Chisel Brush is a professional makeup brush designed exclusively for the flawless application of PÜR's 4-in-1 Pressed Mineral Makeup Foundation; however, it also works well with other PÜR powders.	https://www.purcosmetics.com/old-chisel-brush?utm_source=google_shopping	https://www.purcosmetics.com/media/catalog/product/c/h/chisel-makeup-brush.jpg	 	23.00 USD	8.00 USD	2017-10-31T00:00:00-04:00/2020-03-05T23:59:59-05:00	out of stock	0.09 lb	Pur Cosmetics	951662010	new	Pur Category > Makeup > Shop All,Pur Category > Makeup > Brushes & Tools,Pur Category > Sale	 	 	FALSE	 	878147001231	878147001231	951662010
951154110	 	Correcting Primer Illuminate & Glow	A Stroke of Brilliance Illuminate & Glow instantly adds a dose of brilliance to dull, tired and stressed-looking skin and also helps to minimize the appearance of pores, lines, wrinkles and imperfections.	https://www.purcosmetics.com/color-correcting-primer-illuminate-glow?utm_source=google_shopping	https://www.purcosmetics.com/media/catalog/product/c/o/color-correcting-primer-illuminate-and-glow-cap-on.jpg	https://www.purcosmetics.com/media/catalog/product/c/o/color-correcting-primer-illuminate-and-glow-cap-off.jpg,https://www.purcosmetics.com/media/catalog/product/c/o/color-correcting-primer-illuminate-and-glow-swatch.jpg	33.00 USD	26.00 USD	2018-09-28T00:00:00-04:00/2020-03-05T23:59:59-05:00	in stock	0.11 lb	Pur Cosmetics	951154110	new	Pur Category > Makeup > Face > Primer,Pur Category > Makeup > Face,Pur Category > Makeup > Shop All	 	 	FALSE	 	847137012915	847137012915	951154110
951153110	 	Correcting Primer Redness Reducer	Bye Bye Redness Redness Reducer offsets the look of irritation with its green hue while instantly reducing the appearance of pores and brightening the complexion. The effect is a uniform skin tone and a silky smooth finish.	https://www.purcosmetics.com/color-correcting-primer-green?utm_source=google_shopping	https://www.purcosmetics.com/media/catalog/product/c/o/color-correcting-primer-redness-reducer-cap-on.jpg	https://www.purcosmetics.com/media/catalog/product/c/o/color-correcting-primer-redness-reducer-cap-off.jpg,https://www.purcosmetics.com/media/catalog/product/c/o/color-correcting-primer-redness-reducer-swatch.jpg	33.00 USD	26.00 USD	2018-09-28T00:00:00-04:00/2020-03-05T23:59:59-05:00	in stock	0.11 lb	Pur Cosmetics	951153110	new	Pur Category > Makeup > Shop All,Pur Category > Sale,Pur Category > Vegan	 	 	FALSE	 	847137006334	847137006334	951153110
951116110	 	Dirty Girl Detoxifying Mudd Masque	1 Step Detox For seriously cleaner, clearer skin, sometimes you have to get a little dirty. Dirty Girl unclogs pores, clarifies and gently exfoliates all skin types with a blend of deep cleaning natural clays and soothing botanicals.	https://www.purcosmetics.com/dirty-girl?utm_source=google_shopping	https://www.purcosmetics.com/media/catalog/product/d/i/dirty-girl-capon-4oz-1200x1200.jpg	https://www.purcosmetics.com/media/catalog/product/d/i/dirty-girl-swatch.jpg,https://www.purcosmetics.com/media/catalog/product/p/u/pur-day-26690_retouched_1200x1200_72dpi.jpg	29.00 USD	 	 	in stock	0.20 lb	Pur Cosmetics	951116110	new	Pur Category > Skincare > Best Sellers,Pur Category > Skincare > Masks,Pur Category > Makeup > Shop All	 	 	FALSE	 	847137008291	847137008291	951116110
851116130	 	Dirty Girl Mud Mask Mini	For seriously cleaner, clearer skin, sometimes you have to get a little dirty. Dirty Girl unclogs pores, clarifies and gently exfoliates all skin types with a blend of deep cleaning natural clays and soothing botanicals. As Salicylic Acid sloughs away dead skin and debris, Pascalite a unique form of bentonite clay absorbs pore-clogging impurities for a visibly fresher, more radiant complexion. Formed more than 30 million years ago in Wyoming's Big Horn Mountains, Pascalite has been used by Native Americans for centuries as a folk remedy for insect bites, stings and other skin irritations. Gluten free.	https://www.purcosmetics.com/dirty-girl-mini?utm_source=google_shopping	https://www.purcosmetics.com/media/catalog/product/m/u/mudd-masque.jpg	https://www.purcosmetics.com/media/catalog/product/d/i/dirty-girl--swatch-72dpi.jpg	15.00 USD	 	 	in stock	0.05 lb	Pur Cosmetics	851116130	new	Pur Category > Collections > Travel Size,Pur Category > Makeup > Minis,Pur Category	 	 	FALSE	 	 	 	851116130
10964	 	Disappearing Act Concealer	What it is: 4-in-1 cream concealer  What it does: Conceals, brightens, clarifies and is packed with age-defying ingredients all-in-one! Disappearing Act Concealer covers lines, dark circles, and blemishes. Easily blendable and buildable, this mini concealer brightens, balances and lifts the skin's appearance with minimal effort. 	https://www.purcosmetics.com/disappearing-act?utm_source=google_shopping	https://www.purcosmetics.com/media/catalog/product/d/i/disappearing-act-concealer-light-open.jpg	https://www.purcosmetics.com/media/catalog/product/d/i/disappearing-act-concealer-mediumdark-open_1.jpg,https://www.purcosmetics.com/media/catalog/product/d/i/disappearing-act-concealer-porcelain-open.jpg,https://www.purcosmetics.com/media/catalog/product/d/i/disappearing-act-concealer-dark-open_1.jpg,https://www.purcosmetics.com/media/catalog/product/d/i/disappearing-act-concealer-tan-open.jpg,https://www.purcosmetics.com/media/catalog/product/d/i/disappearing-act-concealer-medium-open.jpg,https://www.purcosmetics.com/media/catalog/product/d/i/disappearing-act-concealer-medium-closed.jpg,https://www.purcosmetics.com/media/catalog/product/d/i/disappearing-act-concealer-light-closed.jpg,https://www.purcosmetics.com/media/catalog/product/d/i/disappearing-act-concealer-dark-closed_1.jpg,https://www.purcosmetics.com/media/catalog/product/d/i/disappearing-act-concealer-tan-closed.jpg	24.00 USD	 	 	in stock	0.00 lb	Pur Cosmetics	10964	new	Pur Category > Makeup > Face > Concealer,Pur Category > Makeup > Best Sellers,Pur Category > Makeup > Face	 	 	FALSE	 	 	 	10964
951167010	10964	Disappearing Act Concealer in Light	Conceal & Correct Create a flawless complexion for today and tomorrow with PUR Minerals' 4-in-1 cream concealer with built-in skincare ingredients. Put an end to unsightly eye lines, dark circles and blemishes for good with salicylic acid, brightening Waltheria Extract and Pur's problem-solving Ceretin Complex, featuring purified, nonirritating retinol and moisture-maximizing ceramides. Easily blendable and buildable, Disappearing Act brightens, balances and lifts the skin's appearance with minimal effort. Paraben-Free.	https://www.purcosmetics.com/disappearing-act?utm_source=google_shopping	https://www.purcosmetics.com/media/catalog/product/d/i/disappearing-act-concealer-light-open.jpg	https://www.purcosmetics.com/media/catalog/product/d/i/disappearing-act-concealer-light-closed.jpg,https://www.purcosmetics.com/media/catalog/product/d/i/disappearing-act-concealer-light-swatch.jpg	24.00 USD	 	 	out of stock	0.06 lb	Pur Cosmetics	951167010	new	Pur Category > Makeup > Face > Concealer,Pur Category > Makeup > Best Sellers,Pur Category > Makeup > Face	 	 	FALSE	 	847137001896	847137001896	951167010
951167020	10964	Disappearing Act Concealer in Medium	Create a flawless complexion for today and tomorrow with PUR Minerals' 4-in-1 cream concealer with built-in skincare ingredients. Put an end to unsightly eye lines, dark circles and blemishes for good with salicylic acid, brightening Waltheria Extract and Pur's problem-solving Ceretin Complex, featuring purified, nonirritating retinol and moisture-maximizing ceramides. Easily blendable and buildable, Disappearing Act brightens, balances and lifts the skin's appearance with minimal effort. Paraben-Free.	https://www.purcosmetics.com/disappearing-act?utm_source=google_shopping	https://www.purcosmetics.com/media/catalog/product/d/i/disappearing-act-concealer-medium-open.jpg	https://www.purcosmetics.com/media/catalog/product/d/i/disappearing-act-concealer-medium-closed.jpg,https://www.purcosmetics.com/media/catalog/product/d/i/disappearing-act-concealer-medium-swatch.jpg	24.00 USD	 	 	in stock	0.06 lb	Pur Cosmetics	951167020	new	Pur Category > Makeup > Face > Concealer,Pur Category > Makeup > Best Sellers,Pur Category > Makeup > Face	 	 	FALSE	 	847137002084	847137002084	951167020
951167030	10964	Disappearing Act Concealer in Tan	Conceal & Correct Create a flawless complexion for today and tomorrow with PUR Minerals' 4-in-1 cream concealer with built-in skincare ingredients. Put an end to unsightly eye lines, dark circles and blemishes for good with salicylic acid, brightening Waltheria Extract and Pur's problem-solving Ceretin Complex, featuring purified, nonirritating retinol and moisture-maximizing ceramides. Easily blendable and buildable, Disappearing Act brightens, balances and lifts the skin's appearance with minimal effort. Paraben-Free.	https://www.purcosmetics.com/disappearing-act?utm_source=google_shopping	https://www.purcosmetics.com/media/catalog/product/d/i/disappearing-act-concealer-tan-open.jpg	https://www.purcosmetics.com/media/catalog/product/d/i/disappearing-act-concealer-tan-closed.jpg,https://www.purcosmetics.com/media/catalog/product/d/i/disappearing-act-concealer-tan-swatch.jpg	24.00 USD	 	 	in stock	0.06 lb	Pur Cosmetics	951167030	new	Pur Category > Makeup > Face > Concealer,Pur Category > Makeup > Best Sellers,Pur Category > Makeup > Face	 	 	FALSE	 	847137001988	847137001988	951167030
951167040	10964	Disappearing Act Concealer in Dark	Conceal & Correct Create a flawless complexion for today and tomorrow with PUR Minerals' 4-in-1 cream concealer with built-in skincare ingredients. Put an end to unsightly eye lines, dark circles and blemishes for good with salicylic acid, brightening Waltheria Extract and Pur's problem-solving Ceretin Complex, featuring purified, nonirritating retinol and moisture-maximizing ceramides. Easily blendable and buildable, Disappearing Act brightens, balances and lifts the skin's appearance with minimal effort. Paraben-Free.	https://www.purcosmetics.com/disappearing-act?utm_source=google_shopping	https://www.purcosmetics.com/media/catalog/product/d/i/disappearing-act-concealer-dark-open.jpg	https://www.purcosmetics.com/media/catalog/product/d/i/disappearing-act-concealer-dark-closed.jpg,https://www.purcosmetics.com/media/catalog/product/d/i/disappearing-act-concealer-dark-swatch.jpg	24.00 USD	 	 	in stock	0.06 lb	Pur Cosmetics	951167040	new	Pur Category > Makeup > Face > Concealer,Pur Category > Makeup > Best Sellers,Pur Category > Makeup > Face	 	 	FALSE	 	847137002022	847137002022	951167040
951167060	10964	Disappearing Act Concealer in Porcelain	Conceal & Correct Create a flawless complexion for today and tomorrow with this 4-in-1 cream concealer with built-in skincare ingredients. Put an end to unsightly eye lines, dark circles and blemishes for good with salicylic acid, brightening Waltheria Extract and PUR's problem-solving Ceretin Complex, featuring purified, nonirritating retinol and moisture-maximizing ceramides. Easily blendable and buildable, Disappearing Act brightens, balances and lifts the skin's appearance with minimal effort.	https://www.purcosmetics.com/disappearing-act?utm_source=google_shopping	https://www.purcosmetics.com/media/catalog/product/d/i/disappearing-act-concealer-porcelain-opencpt_nobackground-.1oz-72dpi_2.jpg	https://www.purcosmetics.com/media/catalog/product/d/i/disappearing-act-concealer-porcelain-closedcpt-.1oz-72dpi_1.jpg,https://www.purcosmetics.com/media/catalog/product/d/i/disappearing-act-concealer-porcelain-smoosh-72dpi_2.jpg	24.00 USD	 	 	in stock	0.00 lb	Pur Cosmetics	951167060	new	Pur Category > Makeup > Face > Concealer,Pur Category > Makeup > Best Sellers,Pur Category > Makeup > Face	 	 	FALSE	 	847137018757	847137018757	951167060
951167070	10964	Disappearing Act Concealer in Medium Dark	Conceal & Correct Create a flawless complexion for today and tomorrow with this 4-in-1 cream concealer with built-in skincare ingredients. Put an end to unsightly eye lines, dark circles and blemishes for good with salicylic acid, brightening Waltheria Extract and PUR's problem-solving Ceretin Complex, featuring purified, nonirritating retinol and moisture-maximizing ceramides. Easily blendable and buildable, Disappearing Act brightens, balances and lifts the skin's appearance with minimal effort.	https://www.purcosmetics.com/disappearing-act?utm_source=google_shopping	https://www.purcosmetics.com/media/catalog/product/d/i/disappearing-act-concealer-mediumdark-opencpt-.1oz-72dpi_1.jpg	https://www.purcosmetics.com/media/catalog/product/d/i/disappearing-act-concealer-mediumdark-closedcpt-.1oz-72dpi_1.jpg,https://www.purcosmetics.com/media/catalog/product/d/i/disappearing-act-concealer-mediumdark-smoosh-72dpi_1.jpg	24.00 USD	 	 	in stock	0.00 lb	Pur Cosmetics	951167070	new	Pur Category > Makeup > Face > Concealer,Pur Category > Makeup > Best Sellers,Pur Category > Makeup > Face	 	 	FALSE	 	847137018764	847137018764	951167070
11028	 	Disappearing Ink 4-in-1 Concealer Pen	Brighten & Conceal Disappearing Ink 4-in-1 Face Concealer Pen quickly brightens the appearance of dark circles, blurs the look of blemishes and wakes up tired-looking eyes. It’s the complete solution to erase signs of sleepless nights, premature aging and visual stress. It's buildable formula is a perfect companion to sheer to medium foundations.	https://www.purcosmetics.com/disappearing-ink?utm_source=google_shopping	https://www.purcosmetics.com/media/catalog/product/d/i/disappearing-ink-concealer-medium-cap-off-to-side.jpg	https://www.purcosmetics.com/media/catalog/product/d/i/disappearing-ink-concealer-lighttan-capofftoside-.12floz-72dpi_1.jpg,https://www.purcosmetics.com/media/catalog/product/d/i/disappearing-ink-concealer-porcelain-capofftoside-_2.jpg,https://www.purcosmetics.com/media/catalog/product/d/i/disappearing-ink-concealer-light-cap-off-to-side.jpg,https://www.purcosmetics.com/media/catalog/product/d/i/disappearing-ink-concealer-deep-capofftoside-.12floz-72dpi_1.jpg,https://www.purcosmetics.com/media/catalog/product/d/i/disappearing-ink-concealer-dark-cap-off-to-side.jpg,https://www.purcosmetics.com/media/catalog/product/d/i/disappearing-ink-concealer-blushmeduim-capofftoside-.12floz-72dpi_2.jpg,https://www.purcosmetics.com/media/catalog/product/d/i/disappearing-ink-concealer-tan-cap-off-to-side.jpg,https://www.purcosmetics.com/media/catalog/product/d/i/disink1_1.jpg,https://www.purcosmetics.com/media/catalog/product/d/i/disink1_1_1.jpg	24.00 USD	 	 	in stock	6.03 lb	Pur Cosmetics	11028	new	Pur Category > Makeup > Face > Concealer,Pur Category > Makeup > Best Sellers,Pur Category > Makeup > Face	 	 	FALSE	 	 	 	11028
951240010	11028	Disappearing Ink 4-in-1 Concealer Pen in Light	Brighten & Conceal Meet the ultimate complexion quick fix! Our Disappearing Ink 4-in-1 face concealer is packed with concentrated skincare ingredients, including Ceretin® Complex and a unique "Diamond Complex" that reflects light away from imperfections using soft-focus microspheres. PÜR's Disappearing Ink mineral concealer pen quickly brightens the appearance of dark circles, blurs the look of blemishes and wakes up tired-looking eyes. Available in four problem-solving shades, this concealer pen is the ideal solution for sleepless nights, premature aging and other telltale signs of skin stress.	https://www.purcosmetics.com/disappearing-ink?utm_source=google_shopping	https://www.purcosmetics.com/media/catalog/product/d/i/disappearing-ink-concealer-light-cap-off-to-side.jpg	https://www.purcosmetics.com/media/catalog/product/d/i/disappearing-ink-concealer-light-cap-on.jpg,https://www.purcosmetics.com/media/catalog/product/d/i/disappearing-ink-concealer-light-swatch.jpg	24.00 USD	 	 	in stock	0.06 lb	Pur Cosmetics	951240010	new	Pur Category > Makeup > Face > Concealer,Pur Category > Makeup > Best Sellers,Pur Category > Makeup > Face	 	 	FALSE	 	847137013431	847137013431	951240010
951240020	11028	Disappearing Ink 4-in-1 Concealer Pen in Medium	Brighten & Conceal Meet the ultimate complexion quick fix! Our Disappearing Ink 4-in-1 face concealer is packed with concentrated skincare ingredients, including Ceretin® Complex and a unique "Diamond Complex" that reflects light away from imperfections using soft-focus microspheres. PÜR's Disappearing Ink mineral concealer pen quickly brightens the appearance of dark circles, blurs the look of blemishes and wakes up tired-looking eyes. Available in four problem-solving shades, this concealer pen is the ideal solution for sleepless nights, premature aging and other telltale signs of skin stress.	https://www.purcosmetics.com/disappearing-ink?utm_source=google_shopping	https://www.purcosmetics.com/media/catalog/product/d/i/disappearing-ink-concealer-medium-cap-off-to-side.jpg	https://www.purcosmetics.com/media/catalog/product/d/i/disappearing-ink-concealer-medium-cap-on.jpg,https://www.purcosmetics.com/media/catalog/product/d/i/disappearing-ink-concealer-medium-swatch.jpg	24.00 USD	 	 	in stock	0.06 lb	Pur Cosmetics	951240020	new	Pur Category > Makeup > Face > Concealer,Pur Category > Makeup > Best Sellers,Pur Category > Makeup > Face	 	 	FALSE	 	847137013448	847137013448	951240020
951240030	11028	Disappearing Ink 4-in-1 Concealer Pen in Tan	Brighten & Conceal Meet the ultimate complexion quick fix! Our Disappearing Ink 4-in-1 face concealer is packed with concentrated skincare ingredients, including Ceretin® Complex and a unique "Diamond Complex" that reflects light away from imperfections using soft-focus microspheres. PÜR's Disappearing Ink mineral concealer pen quickly brightens the appearance of dark circles, blurs the look of blemishes and wakes up tired-looking eyes. Available in four problem-solving shades, this concealer pen is the ideal solution for sleepless nights, premature aging and other telltale signs of skin stress.	https://www.purcosmetics.com/disappearing-ink?utm_source=google_shopping	https://www.purcosmetics.com/media/catalog/product/d/i/disappearing-ink-concealer-tan-cap-off-to-side.jpg	https://www.purcosmetics.com/media/catalog/product/d/i/disappearing-ink-concealer-tan-cap-on.jpg,https://www.purcosmetics.com/media/catalog/product/d/i/disappearing-ink-concealer-tan-swatch.jpg	24.00 USD	 	 	in stock	0.06 lb	Pur Cosmetics	951240030	new	Pur Category > Makeup > Face > Concealer,Pur Category > Makeup > Best Sellers,Pur Category > Makeup > Face	 	 	FALSE	 	847137013455	847137013455	951240030
951240040	11028	Disappearing Ink 4-in-1 Concealer Pen in Dark	Brighten & Conceal Meet the ultimate complexion quick fix! Our Disappearing Ink 4-in-1 face concealer is packed with concentrated skincare ingredients, including Ceretin® Complex and a unique "Diamond Complex" that reflects light away from imperfections using soft-focus microspheres. PÜR's Disappearing Ink mineral concealer pen quickly brightens the appearance of dark circles, blurs the look of blemishes and wakes up tired-looking eyes. Available in four problem-solving shades, this concealer pen is the ideal solution for sleepless nights, premature aging and other telltale signs of skin stress.	https://www.purcosmetics.com/disappearing-ink?utm_source=google_shopping	https://www.purcosmetics.com/media/catalog/product/d/i/disappearing-ink-concealer-dark-cap-off-to-side.jpg	https://www.purcosmetics.com/media/catalog/product/d/i/disappearing-ink-concealer-dark-cap-on.jpg,https://www.purcosmetics.com/media/catalog/product/d/i/disappearing-ink-concealer-dark-swatch.jpg	24.00 USD	 	 	in stock	0.06 lb	Pur Cosmetics	951240040	new	Pur Category > Makeup > Face > Concealer,Pur Category > Makeup > Best Sellers,Pur Category > Makeup > Face	 	 	FALSE	 	847137013462	847137013462	951240040
951240050	11028	Disappearing Ink 4-in-1 Concealer Pen in Blush Medium	Brighten & ConcealDisappearing Ink 4-in-1 Face Concealer Pen quickly brightens the appearance of dark circles, blurs the look of blemishes and wakes up tired-looking eyes. It’s the complete solution to erase signs of sleepless nights, premature aging and visual stress. It's buildable formula is a perfect companion to sheer to medium foundations.	https://www.purcosmetics.com/disappearing-ink?utm_source=google_shopping	https://www.purcosmetics.com/media/catalog/product/d/i/disappearing-ink-concealer-blushmeduim-capofftoside-.12floz-72dpi_1.jpg	https://www.purcosmetics.com/media/catalog/product/d/i/disappearing-ink-concealer-capon-.jpg,https://www.purcosmetics.com/media/catalog/product/d/i/disappearing-ink-concealer-blush-medium-swatch-72dpi_2.jpg	24.00 USD	 	 	in stock	6.03 lb	Pur Cosmetics	951240050	new	Pur Category > Makeup > Face > Concealer,Pur Category > Makeup > Best Sellers,Pur Category > Makeup > Face	 	 	FALSE	 	847137027087	847137027087	951240050
951240070	11028	Disappearing Ink 4-in-1 Concealer Pen in Light Tan	Brighten & Conceal Disappearing Ink 4-in-1 Face Concealer Pen quickly brightens the appearance of dark circles, blurs the look of blemishes and wakes up tired-looking eyes. It’s the complete solution to erase signs of sleepless nights, premature aging and visual stress. It's buildable formula is a perfect companion to sheer to medium foundations.	https://www.purcosmetics.com/disappearing-ink?utm_source=google_shopping	https://www.purcosmetics.com/media/catalog/product/d/i/disappearing-ink-concealer-lighttan-capofftoside-.12floz-72dpi.jpg	https://www.purcosmetics.com/media/catalog/product/d/i/disappearing-ink-concealer-capon-_2.jpg,https://www.purcosmetics.com/media/catalog/product/d/i/disappearing-ink-concealer-light-tan-swatch-72dpi.jpg	24.00 USD	 	 	in stock	6.03 lb	Pur Cosmetics	951240070	new	Pur Category > Makeup > Face > Concealer,Pur Category > Makeup > Best Sellers,Pur Category > Makeup > Face	 	 	FALSE	 	847137027100	847137027100	951240070
951240060	11028	Disappearing Ink 4-in-1 Concealer Pen in Porcelain	Brighten & Conceal Disappearing Ink 4-in-1 Face Concealer Pen quickly brightens the appearance of dark circles, blurs the look of blemishes and wakes up tired-looking eyes. It’s the complete solution to erase signs of sleepless nights, premature aging and visual stress. It's buildable formula is a perfect companion to sheer to medium foundations.	https://www.purcosmetics.com/disappearing-ink?utm_source=google_shopping	https://www.purcosmetics.com/media/catalog/product/d/i/disappearing-ink-concealer-porcelain-capofftoside-_1.jpg	https://www.purcosmetics.com/media/catalog/product/d/i/disappearing-ink-concealer-capon-_1_1.jpg,https://www.purcosmetics.com/media/catalog/product/d/i/disappearing-ink-concealer-porcelain-swatch-72dpi_1.jpg	24.00 USD	 	 	in stock	6.03 lb	Pur Cosmetics	951240060	new	Pur Category > Makeup > Face > Concealer,Pur Category > Makeup > Best Sellers,Pur Category > Makeup > Face	 	 	FALSE	 	847137027094	847137027094	951240060
951240080	11028	Disappearing Ink 4-in-1 Concealer Pen in Deep	Brighten & Conceal Disappearing Ink 4-in-1 Face Concealer Pen quickly brightens the appearance of dark circles, blurs the look of blemishes and wakes up tired-looking eyes. It’s the complete solution to erase signs of sleepless nights, premature aging and visual stress. It's buildable formula is a perfect companion to sheer to medium foundations.	https://www.purcosmetics.com/disappearing-ink?utm_source=google_shopping	https://www.purcosmetics.com/media/catalog/product/d/i/disappearing-ink-concealer-deep-capofftoside-.jpg	https://www.purcosmetics.com/media/catalog/product/d/i/disappearing-ink-concealer-capon-_5.jpg,https://www.purcosmetics.com/media/catalog/product/d/i/disappearing-ink-concealer-deep-swatch-72dpi.jpg	24.00 USD	 	 	in stock	6.03 lb	Pur Cosmetics	951240080	new	Pur Category > Makeup > Face > Concealer,Pur Category > Makeup > Best Sellers,Pur Category > Makeup > Face	 	 	FALSE	 	847137027117	847137027117	951240080
11220	 	Eye Polish	Liquid Shadow Comes Alive Make your eyes pop in a blink! This eye primer and top coat pigment creates a crease-proof eye shadow base with a luminous metallic sheen. The eye-opening formula glides on with pro precision and builds with exceptional ease with the use of the enclosed latex-free silicone applicator. Use alone as an iridescent cream shadow, under eye shadows for visibly more vibrant color or over eye shadow as a top coat to amplify color and add dimension to your eye look! Includes silicone applicator.	https://www.purcosmetics.com/eye-polish?utm_source=google_shopping	https://www.purcosmetics.com/media/catalog/product/e/y/eye-polish-satin-cap-off.jpg	https://www.purcosmetics.com/media/catalog/product/e/y/eye-polish-caviar-cap-off.jpg,https://www.purcosmetics.com/media/catalog/product/e/y/eye-polish-suede-cap-off.jpg,https://www.purcosmetics.com/media/catalog/product/e/y/eye-polish-velvet-cap-off.jpg,https://www.purcosmetics.com/media/catalog/product/e/y/eye-polish-silk-cap-off.jpg,https://www.purcosmetics.com/media/catalog/product/e/y/eye-polish-cashmere-cap-off.jpg,https://www.purcosmetics.com/media/catalog/product/e/y/eye-polish-caviar-cap-on.jpg,https://www.purcosmetics.com/media/catalog/product/e/y/eye-polish-suede-cap-on.jpg,https://www.purcosmetics.com/media/catalog/product/e/y/eye-polish-silk-cap-on.jpg,https://www.purcosmetics.com/media/catalog/product/e/y/eye-polish-velvet-cap-on.jpg	26.00 USD	20.00 USD	 	in stock	0.11 lb	Pur Cosmetics	11220	new	Pur Category > Makeup > Eyes > Eyeshadow,Pur Category > Makeup > Eyes,Pur Category > Makeup > Shop All	 	 	FALSE	 	 	 	11220
951435010	11220	Eye Polish in Silk	Liquid Shadow Comes Alive Make your eyes pop in a blink! This eye primer and top coat's pure pigment creates a crease-proof eye shadow base with a luminous metallic sheen. This eye-opening formula glides on with pro precision and builds with exceptional ease with the use of the enclosed Latex-free silicone applicator. Use alone as an iridescent cream shadow, under mineral eye shadows for visibly more vibrant color or over mineral shadow as a top coat to amplify color and add dimension to your eye look!	https://www.purcosmetics.com/eye-polish?utm_source=google_shopping	https://www.purcosmetics.com/media/catalog/product/e/y/eye-polish-silk-cap-off.jpg	https://www.purcosmetics.com/media/catalog/product/e/y/eye-polish-silk-cap-on.jpg,https://www.purcosmetics.com/media/catalog/product/e/y/eye-polish-silk-swatch.jpg	26.00 USD	20.00 USD	 	in stock	0.11 lb	Pur Cosmetics	951435010	new	Pur Category > Makeup > Eyes > Eyeshadow,Pur Category > Makeup > Eyes,Pur Category > Makeup > Shop All	 	 	FALSE	 	847137000622	847137000622	951435010
951435020	11220	Eye Polish in Suede	Liquid Shadow Comes Alive Make your eyes pop in a blink! This eye primer and top coat's pure pigment creates a crease-proof eye shadow base with a luminous metallic sheen. This eye-opening formula glides on with pro precision and builds with exceptional ease with the use of the enclosed Latex-free silicone applicator. Use alone as an iridescent cream shadow, under mineral eye shadows for visibly more vibrant color or over mineral shadow as a top coat to amplify color and add dimension to your eye look!	https://www.purcosmetics.com/eye-polish?utm_source=google_shopping	https://www.purcosmetics.com/media/catalog/product/e/y/eye-polish-suede-cap-off.jpg	https://www.purcosmetics.com/media/catalog/product/e/y/eye-polish-suede-cap-on.jpg,https://www.purcosmetics.com/media/catalog/product/e/y/eye-polish-suede-swatch.jpg	26.00 USD	20.00 USD	 	in stock	0.11 lb	Pur Cosmetics	951435020	new	Pur Category > Makeup > Eyes > Eyeshadow,Pur Category > Makeup > Eyes,Pur Category > Makeup > Shop All	 	 	FALSE	 	847137000639	847137000639	951435020
951435030	11220	Eye Polish in Satin	Liquid Shadow Comes Alive Make your eyes pop in a blink! This eye primer and top coat's pure pigment creates a crease-proof eye shadow base with a luminous metallic sheen. This eye-opening formula glides on with pro precision and builds with exceptional ease with the use of the enclosed Latex-free silicone applicator. Use alone as an iridescent cream shadow, under mineral eye shadows for visibly more vibrant color or over mineral shadow as a top coat to amplify color and add dimension to your eye look!	https://www.purcosmetics.com/eye-polish?utm_source=google_shopping	https://www.purcosmetics.com/media/catalog/product/e/y/eye-polish-satin-cap-off.jpg	https://www.purcosmetics.com/media/catalog/product/e/y/eye-polish-satin-cap-on.jpg,https://www.purcosmetics.com/media/catalog/product/e/y/eye-polish-satin-swatch.jpg	26.00 USD	20.00 USD	 	in stock	0.11 lb	Pur Cosmetics	951435030	new	Pur Category > Makeup > Eyes > Eyeshadow,Pur Category > Makeup > Eyes,Pur Category > Makeup > Shop All	 	 	FALSE	 	847137000707	847137000707	951435030
951435040	11220	Eye Polish in Velvet	Liquid Shadow Comes Alive Make your eyes pop in a blink! This eye primer and top coat's pure pigment creates a crease-proof eye shadow base with a luminous metallic sheen. This eye-opening formula glides on with pro precision and builds with exceptional ease with the use of the enclosed Latex-free silicone applicator. Use alone as an iridescent cream shadow, under mineral eye shadows for visibly more vibrant color or over mineral shadow as a top coat to amplify color and add dimension to your eye look!	https://www.purcosmetics.com/eye-polish?utm_source=google_shopping	https://www.purcosmetics.com/media/catalog/product/e/y/eye-polish-velvet-cap-off.jpg	https://www.purcosmetics.com/media/catalog/product/e/y/eye-polish-velvet-cap-on.jpg,https://www.purcosmetics.com/media/catalog/product/e/y/eye-polish-velvet-swatch.jpg	26.00 USD	20.00 USD	 	in stock	0.12 lb	Pur Cosmetics	951435040	new	Pur Category > Makeup > Eyes > Eyeshadow,Pur Category > Makeup > Eyes,Pur Category > Makeup > Shop All	 	 	FALSE	 	847137000714	847137000714	951435040
951435050	11220	Eye Polish in Caviar	Liquid Shadow Comes Alive Make your eyes pop in a blink! This eye primer and top coat's pure pigment creates a crease-proof eye shadow base with a luminous metallic sheen. This eye-opening formula glides on with pro precision and builds with exceptional ease with the use of the enclosed Latex-free silicone applicator. Use alone as an iridescent cream shadow, under mineral eye shadows for visibly more vibrant color or over mineral shadow as a top coat to amplify color and add dimension to your eye look!	https://www.purcosmetics.com/eye-polish?utm_source=google_shopping	https://www.purcosmetics.com/media/catalog/product/e/y/eye-polish-caviar-cap-off.jpg	https://www.purcosmetics.com/media/catalog/product/e/y/eye-polish-caviar-swatch.jpg,https://www.purcosmetics.com/media/catalog/product/e/y/eye-polish-caviar-cap-on.jpg	26.00 USD	20.00 USD	 	in stock	0.11 lb	Pur Cosmetics	951435050	new	Pur Category > Makeup > Eyes > Eyeshadow,Pur Category > Makeup > Eyes,Pur Category > Makeup > Shop All	 	 	FALSE	 	847137000820	847137000820	951435050
951435060	11220	Eye Polish in Cashmere	Liquid Shadow Comes Alive Make your eyes pop in a blink! This eye primer and top coat's pure pigment creates a crease-proof eye shadow base with a luminous metallic sheen. This eye-opening formula glides on with pro precision and builds with exceptional ease with the use of the enclosed Latex-free silicone applicator. Use alone as an iridescent cream shadow, under mineral eye shadows for visibly more vibrant color or over mineral shadow as a top coat to amplify color and add dimension to your eye look!	https://www.purcosmetics.com/eye-polish?utm_source=google_shopping	https://www.purcosmetics.com/media/catalog/product/e/y/eye-polish-cashmere-cap-off.jpg	https://www.purcosmetics.com/media/catalog/product/e/y/eye-polish-cashmere-cap-on.jpg,https://www.purcosmetics.com/media/catalog/product/e/y/eye-polish-cashmere-swatch.jpg	26.00 USD	20.00 USD	 	in stock	0.11 lb	Pur Cosmetics	951435060	new	Pur Category > Makeup > Eyes > Eyeshadow,Pur Category > Makeup > Eyes,Pur Category > Makeup > Shop All	 	 	FALSE	 	847137000851	847137000851	951435060
951665010	 	Eyeshadow Makeup Brush	Apply Like An Artist This classically shaped Eye Shadow Makeup Brush, made of all-natural, cruelty-free goat, sable and pony hair, allows you to shade or blend eye shadow with professional ease. The Eye Shadow Makeup Brush has soft yet firm bristles to create a professional eye makeup look with ease.	https://www.purcosmetics.com/eye-shadow-brush?utm_source=google_shopping	https://www.purcosmetics.com/media/catalog/product/e/y/eye-shadow-makeup-brush-1000x1000.jpg	 	16.00 USD	6.00 USD	2017-09-28T00:00:00-04:00/2020-03-05T23:59:59-05:00	in stock	0.02 lb	Pur Cosmetics	951665010	new	Pur Category > Makeup > Brushes & Tools,Pur Category > Sale,Pur Category	 	 	FALSE	 	878147001279	878147001279	951665010
951667010	 	Eyeliner Makeup Brush	Line & Define The Eyeliner Makeup Brush is a perfectly angled makeup brush that is specifically designed for creating eyeliner with wet or dry eye shadows.	https://www.purcosmetics.com/eyeliner-brush?utm_source=google_shopping	https://www.purcosmetics.com/media/catalog/product/e/y/eye-liner-makeup-brush-1000x1000.jpg	 	13.00 USD	5.00 USD	2017-09-28T00:00:00-04:00/2020-03-05T23:59:59-05:00	in stock	0.02 lb	Pur Cosmetics	951667010	new	Pur Category > Makeup > Brushes & Tools,Pur Category > Sale,Pur Category	 	 	FALSE	 	878147003488	878147003488	951667010
951173010	 	Get A Lift Age-Defying Moisturizer	Tighten Up Want firmer-looking skin? Leave the heavy lifting to us. Get A Lift targets the look of lines, wrinkles and sagging skin with a triple-action, nature-based formula that firms, smoothes and tightens. In a six-week clinical study, 99 percent of users reported firmer results!	https://www.purcosmetics.com/get-a-lift?utm_source=google_shopping	https://www.purcosmetics.com/media/catalog/product/g/e/get-a-lift-cap-off-to-side.jpg	https://www.purcosmetics.com/media/catalog/product/g/e/get-a-lift-cap-on.jpg,https://www.purcosmetics.com/media/catalog/product/g/e/get-a-lift-swatch.jpg	39.00 USD	 	 	out of stock	0.49 lb	Pur Cosmetics	951173010	new	Pur Category > Skincare > Moisturizers,Pur Category > Skincare > Vegan,Pur Category > Makeup > Shop All	 	 	FALSE	 	847137007072	847137007072	951173010
951175110	 	Get Bright Spot Brightening Serum	Brighten On The Spot Help your skin see the light with Get Bright Spot Brightening Serum. This highly concentrated solution corrects the look of dark spots, blotchy skin and uneven tone with proven, powerhouse brighteners and has been shown to reduce the look of dark spots by as much as 73 percent. In a six-week clinical study, 87 percent of Get Bright users saw a visibly brighter appearance.	https://www.purcosmetics.com/get-bright?utm_source=google_shopping	https://www.purcosmetics.com/media/catalog/product/g/e/get-bright-cap-on.jpg	https://www.purcosmetics.com/media/catalog/product/g/e/get-bright-swatch.jpg	34.00 USD	14.00 USD	2017-03-14T00:00:00-04:00/2020-03-05T23:59:59-05:00	out of stock	0.29 lb	Pur Cosmetics	951175110	new	Pur Category > Skincare > Serums,Pur Category > Makeup > Shop All,Pur Category > Skincare > Shop All	 	 	FALSE	 	847137014834	847137014834	951175110
951339040	 	Lava Rocks Illuminating Blush	Hot Dimension Give eyes, cheeks and lips a healthy dose of multi-depth color with Lava Rocks! Using the same patented, three-dimensional design that made PUR Rocks a beauty star, Lava Rocks contours cheeks, colors eyes and lavishes lips in rich mineral hues of garnet and red clay. Paraben-free.	https://www.purcosmetics.com/lava-rocks?utm_source=google_shopping	https://www.purcosmetics.com/media/catalog/product/l/a/lava-rocks-1000x1000.jpg	 	23.50 USD	10.00 USD	2017-05-23T00:00:00-04:00/2020-03-05T23:59:59-05:00	out of stock	0.07 lb	Pur Cosmetics	951339040	new	Pur Category > Makeup > Shop All,Pur Category > Makeup > Cheeks,Pur Category > Sale	 	 	FALSE	 	878147008360	878147008360	951339040
851666010	 	Covered Lip Makeup Brush	Using the Covered Lip Makeup Brush makes application of lip colour a snap! This lipstick brush can double as a lip gloss brush and is the perfect choice to apply your favorite lip shades to the contours of your pout with precision. With a metal cap, you can pop it in your bag and take it with you for touchups.	https://www.purcosmetics.com/lip-brush?utm_source=google_shopping	https://www.purcosmetics.com/media/catalog/product/c/o/covered-lip-makeup-brush-1000x1000.jpg	 	15.00 USD	5.00 USD	2017-09-28T00:00:00-04:00/2020-03-05T23:59:59-05:00	in stock	0.01 lb	Pur Cosmetics	851666010	new	Pur Category > Makeup > Brushes & Tools,Pur Category > Sale	 	 	FALSE	 	847137022990	847137022990	851666010
11284	 	Lip Gloss Stick	High-Shine In A Jumbo Pencil Is it a gloss, is it a pencil, or is it something better? PÜR's megawatt Lip Gloss Sticks give you the jaw-dropping bold lip look you expect from a gloss with the application ease of a jumbo pencil.	https://www.purcosmetics.com/lip-gloss-stick?utm_source=google_shopping	https://www.purcosmetics.com/media/catalog/product/l/i/lip-gloss-stick-spiked-punch-cap-off.jpg	https://www.purcosmetics.com/media/catalog/product/l/i/lip-gloss-stick-coralline-cap-off.jpg,https://www.purcosmetics.com/media/catalog/product/l/i/lip-gloss-stick-honey-pie-cap-off.jpg,https://www.purcosmetics.com/media/catalog/product/l/i/lip-gloss-stick-daredevil-cap-off.jpg,https://www.purcosmetics.com/media/catalog/product/l/i/lip-gloss-stick-berry-pretty-cap-off.jpg,https://www.purcosmetics.com/media/catalog/product/l/i/lip-gloss-stick-game-day-cap-off.jpg,https://www.purcosmetics.com/media/catalog/product/l/i/lip-gloss-stick-rum-raisin-cap-off.jpg,https://www.purcosmetics.com/media/catalog/product/l/i/lip-gloss-stick-beach-bum-cap-off.jpg,https://www.purcosmetics.com/media/catalog/product/l/i/lip-gloss-stick-spiked-punch-cap-on.jpg	18.00 USD	6.00 USD	2017-11-30T00:00:00-05:00/2020-03-05T23:59:59-05:00	in stock	0.04 lb	Pur Cosmetics	11284	new	Pur Category > Makeup > Shop All,Pur Category > Makeup > Lips,Pur Category > Sale	 	 	FALSE	 	 	 	11284
951450030	11284	Lip Gloss Stick in Beach Bum	High-Shine In A Jumbo Pencil Is it a gloss, is it a pencil, or is it something better? PÜR's megawatt Lip Gloss Sticks give you the jaw-dropping bold lip look you expect from a gloss with application ease of a jumbo pencil. Bursting with rich emollients and vitamin E, these buttery smooth natural lip gloss sticks condition lips as they colour. It's the best lip gloss available. Now that's something to smile about.	https://www.purcosmetics.com/lip-gloss-stick?utm_source=google_shopping	https://www.purcosmetics.com/media/catalog/product/l/i/lip-gloss-stick-beach-bum-cap-off.jpg	https://www.purcosmetics.com/media/catalog/product/l/i/lip-gloss-stick-beach-bum-cap-on.jpg,https://www.purcosmetics.com/media/catalog/product/l/i/lip-gloss-stick-beach-bum-swatch.jpg	18.00 USD	6.00 USD	2017-11-30T00:00:00-05:00/2020-03-05T23:59:59-05:00	in stock	0.04 lb	Pur Cosmetics	951450030	new	Pur Category > Makeup > Shop All,Pur Category > Makeup > Lips,Pur Category > Sale	 	 	FALSE	 	847137001711	847137001711	951450030
951450040	11284	Lip Gloss Stick in Berry Pretty	High-Shine In A Jumbo Pencil Is it a gloss, is it a pencil, or is it something better? PÜR's megawatt Lip Gloss Sticks give you the jaw-dropping bold lip look you expect from a gloss with application ease of a jumbo pencil. Bursting with rich emollients and vitamin E, these buttery smooth natural lip gloss sticks condition lips as they colour. It's the best lip gloss available. Now that's something to smile about.	https://www.purcosmetics.com/lip-gloss-stick?utm_source=google_shopping	https://www.purcosmetics.com/media/catalog/product/l/i/lip-gloss-stick-berry-pretty-cap-off.jpg	https://www.purcosmetics.com/media/catalog/product/l/i/lip-gloss-stick-berry-pretty-cap-on.jpg,https://www.purcosmetics.com/media/catalog/product/l/i/lip-gloss-stick-berry-pretty-swatch.jpg	18.00 USD	6.00 USD	2017-11-30T00:00:00-05:00/2020-03-05T23:59:59-05:00	in stock	0.04 lb	Pur Cosmetics	951450040	new	Pur Category > Makeup > Shop All,Pur Category > Makeup > Lips,Pur Category > Sale	 	 	FALSE	 	847137001681	847137001681	951450040
951450050	11284	Lip Gloss Stick in Coralline	High-Shine In A Jumbo Pencil Is it a gloss, is it a pencil, or is it something better? PÜR's megawatt Lip Gloss Sticks give you the jaw-dropping bold lip look you expect from a gloss with application ease of a jumbo pencil. Bursting with rich emollients and vitamin E, these buttery smooth natural lip gloss sticks condition lips as they colour. It's the best lip gloss available. Now that's something to smile about.	https://www.purcosmetics.com/lip-gloss-stick?utm_source=google_shopping	https://www.purcosmetics.com/media/catalog/product/l/i/lip-gloss-stick-coralline-cap-off.jpg	https://www.purcosmetics.com/media/catalog/product/l/i/lip-gloss-stick-coralline-cap-on.jpg,https://www.purcosmetics.com/media/catalog/product/l/i/lip-gloss-stick-coralline-swatch.jpg	18.00 USD	6.00 USD	2017-11-30T00:00:00-05:00/2020-03-05T23:59:59-05:00	in stock	0.04 lb	Pur Cosmetics	951450050	new	Pur Category > Makeup > Shop All,Pur Category > Makeup > Lips,Pur Category > Sale	 	 	FALSE	 	847137006242	847137006242	951450050
951450060	11284	Lip Gloss Stick in Game Day	High-Shine In A Jumbo Pencil Is it a gloss, is it a pencil, or is it something better? PÜR's megawatt Lip Gloss Sticks give you the jaw-dropping bold lip look you expect from a gloss with application ease of a jumbo pencil. Bursting with rich emollients and vitamin E, these buttery smooth natural lip gloss sticks condition lips as they colour. It's the best lip gloss available. Now that's something to smile about.	https://www.purcosmetics.com/lip-gloss-stick?utm_source=google_shopping	https://www.purcosmetics.com/media/catalog/product/l/i/lip-gloss-stick-game-day-cap-off.jpg	https://www.purcosmetics.com/media/catalog/product/l/i/lip-gloss-stick-game-day-cap-on.jpg,https://www.purcosmetics.com/media/catalog/product/l/i/lip-gloss-stick-game-day-swatch.jpg	18.00 USD	6.00 USD	2017-11-30T00:00:00-05:00/2020-03-05T23:59:59-05:00	in stock	0.04 lb	Pur Cosmetics	951450060	new	Pur Category > Makeup > Shop All,Pur Category > Makeup > Lips,Pur Category > Sale	 	 	FALSE	 	847137006259	847137006259	951450060
951450070	11284	Lip Gloss Stick in Daredevil	High-Shine In A Jumbo Pencil Is it a gloss, is it a pencil, or is it something better? PÜR's megawatt Lip Gloss Sticks give you the jaw-dropping bold lip look you expect from a gloss with application ease of a jumbo pencil. Bursting with rich emollients and vitamin E, these buttery smooth natural lip gloss sticks condition lips as they colour. It's the best lip gloss available. Now that's something to smile about.	https://www.purcosmetics.com/lip-gloss-stick?utm_source=google_shopping	https://www.purcosmetics.com/media/catalog/product/l/i/lip-gloss-stick-daredevil-cap-off.jpg	https://www.purcosmetics.com/media/catalog/product/l/i/lip-gloss-stick-daredevil-cap-on.jpg,https://www.purcosmetics.com/media/catalog/product/l/i/lip-gloss-stick-daredevil-swatch.jpg	18.00 USD	6.00 USD	2017-11-30T00:00:00-05:00/2020-03-05T23:59:59-05:00	in stock	0.04 lb	Pur Cosmetics	951450070	new	Pur Category > Makeup > Shop All,Pur Category > Makeup > Lips,Pur Category > Sale	 	 	FALSE	 	847137006266	847137006266	951450070
951450080	11284	Lip Gloss Stick in Spiked Punch	High-Shine In A Jumbo Pencil Is it a gloss, is it a pencil, or is it something better? PÜR's megawatt Lip Gloss Sticks give you the jaw-dropping bold lip look you expect from a gloss with application ease of a jumbo pencil. Bursting with rich emollients and vitamin E, these buttery smooth natural lip gloss sticks condition lips as they colour. It's the best lip gloss available. Now that's something to smile about.	https://www.purcosmetics.com/lip-gloss-stick?utm_source=google_shopping	https://www.purcosmetics.com/media/catalog/product/l/i/lip-gloss-stick-spiked-punch-cap-off.jpg	https://www.purcosmetics.com/media/catalog/product/l/i/lip-gloss-stick-spiked-punch-cap-on.jpg,https://www.purcosmetics.com/media/catalog/product/l/i/lip-gloss-stick-spiked-punch-swatch.jpg	18.00 USD	6.00 USD	2017-11-30T00:00:00-05:00/2020-03-05T23:59:59-05:00	in stock	0.04 lb	Pur Cosmetics	951450080	new	Pur Category > Makeup > Shop All,Pur Category > Makeup > Lips,Pur Category > Sale	 	 	FALSE	 	847137006273	847137006273	951450080
11348	 	Lip Lure Hydrating Lip Lacquer	Bold Liquid Lips Let your lips speak for you with beautifully bold color and brilliant shine! PÜR’s richly pigmented lip lacquers saturate your lips in true colour and pout-perfecting hydration. Using a unique, flocked showerhead applicator, this creamy, full-coverage liquid formula creates a showstopping look in just one stroke!	https://www.purcosmetics.com/lip-lure?utm_source=google_shopping	https://www.purcosmetics.com/media/catalog/product/l/i/lip-lure-fiery-cap-off.jpg	https://www.purcosmetics.com/media/catalog/product/l/i/lip-lure-graceful-cap-off.jpg,https://www.purcosmetics.com/media/catalog/product/l/i/lip-lure-fancy-cap-off.jpg,https://www.purcosmetics.com/media/catalog/product/l/i/lip-lure-mystic-cap-off.jpg,https://www.purcosmetics.com/media/catalog/product/l/i/lip-lure-belle-cap-off.jpg,https://www.purcosmetics.com/media/catalog/product/l/i/lip-lure-graceful-cap-on.jpg,https://www.purcosmetics.com/media/catalog/product/l/i/lip-lure-fancy-cap-on.jpg,https://www.purcosmetics.com/media/catalog/product/l/i/lip-lure-belle-cap-on.jpg,https://www.purcosmetics.com/media/catalog/product/l/i/lip-lure-mystic-cap-on.jpg	22.00 USD	10.00 USD	2017-06-02T00:00:00-04:00/2020-03-05T23:59:59-05:00	in stock	 	Pur Cosmetics	11348	new	Pur Category > Makeup > Shop All,Pur Category > Makeup > Lips,Pur Category > Sale	 	 	FALSE	 	 	 	11348
951676020	 	Liquid Chisel Brush	A Cream or Liquid Partner The magic behind the PÜR Cosmetics look. Achieve complexion perfection every time you apply your liquid foundation. Designed specifically for PÜR's liquid foundations, this full-headed brush uses a unique blend of synthetic and natural fibers to deliver a flawless, airbrushed finish with ease. Ideal for applying and layering liquid makeup, the Liquid Chisel Brush can also be used for powder application.	https://www.purcosmetics.com/liquid-chisel-brush?utm_source=google_shopping	https://www.purcosmetics.com/media/catalog/product/l/i/liquidchiselbrush_lr.jpg	 	23.00 USD	18.00 USD	2018-11-09T00:00:00-05:00/2020-03-05T23:59:59-05:00	in stock	0.08 lb	Pur Cosmetics	951676020	new	Pur Category > Makeup > Brushes & Tools,Pur Category > Makeup > Shop All,Pur Category > Makeup	 	 	FALSE	 	847137017866	847137017866	951676020
11412	 	Liquid Veil Airbrush Foundation	Getting that gorgeous, airbrushed look has never been easier! Liquid Veil 4-in-1 Spray Foundation delivers ultra-light, skin-perfecting coverage in a one-of-a-kind formula that's years in the making. This non-butane, spray-on foundation, hydrator and skin-perfecting veil features two age-defying super-ingredients: Liquid Crystals, which retain moisture and reflect light for a dewy soft finish, and PÜR’s proprietary Ceretin Complex for a satiny smooth, close-up worthy complexion you'll adore!	https://www.purcosmetics.com/liquid-veil?utm_source=google_shopping	https://www.purcosmetics.com/media/catalog/product/l/i/liquid-veil-spray-foundation-light-cap-on.jpg	https://www.purcosmetics.com/media/catalog/product/l/i/liquid-veil-spray-foundation-dark-cap-on.jpg,https://www.purcosmetics.com/media/catalog/product/l/i/liquid-veil-spray-foundation-tan-cap-on.jpg,https://www.purcosmetics.com/media/catalog/product/l/i/liquid-veil-spray-foundation-medium-cap-on.jpg,https://www.purcosmetics.com/media/catalog/product/l/i/liquid-veil-spray-foundation-tan-cap-off-to-side.jpg,https://www.purcosmetics.com/media/catalog/product/l/i/liquid-veil-spray-foundation-dark-cap-off-to-side.jpg,https://www.purcosmetics.com/media/catalog/product/l/i/liquid-veil-spray-foundation-medium-cap-off-to-side.jpg,https://www.purcosmetics.com/media/catalog/product/l/i/liquid-veil-spray-foundation-light-cap-off-to-side.jpg,https://www.purcosmetics.com/media/catalog/product/l/i/liquid-veil-spray-foundation-medium-swatch.jpg,https://www.purcosmetics.com/media/catalog/product/l/i/liquid-veil-spray-foundation-light-swatch.jpg	39.00 USD	31.00 USD	 	in stock	0.21 lb	Pur Cosmetics	11412	new	Pur Category > Makeup > Face > Foundation,Pur Category > Makeup > Face,Pur Category > Makeup > Shop All	 	 	FALSE	 	 	 	11412
951242010	11412	Liquid Veil Airbrush Foundation in Light	Getting that gorgeous, airbrushed look has never been easier! Liquid Veil 4-in-1 Spray Foundation delivers ultra-light, skin-perfecting coverage in a one-of-a-kind formula that's years in the making. This non-butane spray-on foundation, hydrator and skin-perfecting veil features two age-defying super-ingredients: Liquid Crystals, which retain moisture and reflect light for a dewy soft finish, and Pur's proprietary Ceretin Complex for a satiny smooth, close-up worthy complexion you'll adore!	https://www.purcosmetics.com/liquid-veil?utm_source=google_shopping	https://www.purcosmetics.com/media/catalog/product/l/i/liquid-veil-spray-foundation-light-cap-on.jpg	https://www.purcosmetics.com/media/catalog/product/l/i/liquid-veil-spray-foundation-light-swatch.jpg	39.00 USD	31.00 USD	 	out of stock	0.21 lb	Pur Cosmetics	951242010	new	Pur Category > Makeup > Face > Foundation,Pur Category > Makeup > Face,Pur Category > Makeup > Shop All	 	 	FALSE	 	847137014070	847137014070	951242010
951242020	11412	Liquid Veil Airbrush Foundation in Medium	Getting that gorgeous, airbrushed look has never been easier! Liquid Veil 4-in-1 Spray Foundation delivers ultra-light, skin-perfecting coverage in a one-of-a-kind formula that's years in the making. This non-butane spray-on foundation, hydrator and skin-perfecting veil features two age-defying super-ingredients: Liquid Crystals, which retain moisture and reflect light for a dewy soft finish, and Pur's proprietary Ceretin Complex for a satiny smooth, close-up worthy complexion you'll adore!	https://www.purcosmetics.com/liquid-veil?utm_source=google_shopping	https://www.purcosmetics.com/media/catalog/product/l/i/liquid-veil-spray-foundation-medium-cap-on.jpg	https://www.purcosmetics.com/media/catalog/product/l/i/liquid-veil-spray-foundation-medium-swatch.jpg	39.00 USD	31.00 USD	 	out of stock	0.21 lb	Pur Cosmetics	951242020	new	Pur Category > Makeup > Face > Foundation,Pur Category > Makeup > Face,Pur Category > Makeup > Shop All	 	 	FALSE	 	847137014087	847137014087	951242020
951242030	11412	Liquid Veil Airbrush Foundation in Tan	Getting that gorgeous, airbrushed look has never been easier! Liquid Veil 4-in-1 Spray Foundation delivers ultra-light, skin-perfecting coverage in a one-of-a-kind formula that's years in the making. This non-butane spray-on foundation, hydrator and skin-perfecting veil features two age-defying super-ingredients: Liquid Crystals, which retain moisture and reflect light for a dewy soft finish, and Pur's proprietary Ceretin Complex for a satiny smooth, close-up worthy complexion you'll adore!	https://www.purcosmetics.com/liquid-veil?utm_source=google_shopping	https://www.purcosmetics.com/media/catalog/product/l/i/liquid-veil-spray-foundation-tan-cap-on.jpg	https://www.purcosmetics.com/media/catalog/product/l/i/liquid-veil-spray-foundation-tan-swatch.jpg	39.00 USD	31.00 USD	 	in stock	0.21 lb	Pur Cosmetics	951242030	new	Pur Category > Makeup > Face > Foundation,Pur Category > Makeup > Face,Pur Category > Makeup > Shop All	 	 	FALSE	 	847137014094	847137014094	951242030
951242040	11412	Liquid Veil Airbrush Foundation in Dark	Getting that gorgeous, airbrushed look has never been easier! Liquid Veil 4-in-1 Spray Foundation delivers ultra-light, skin-perfecting coverage in a one-of-a-kind formula that's years in the making. This non-butane spray-on foundation, hydrator and skin-perfecting veil features two age-defying super-ingredients: Liquid Crystals, which retain moisture and reflect light for a dewy soft finish, and Pur's proprietary Ceretin Complex for a satiny smooth, close-up worthy complexion you'll adore!	https://www.purcosmetics.com/liquid-veil?utm_source=google_shopping	https://www.purcosmetics.com/media/catalog/product/l/i/liquid-veil-spray-foundation-dark-cap-on.jpg	https://www.purcosmetics.com/media/catalog/product/l/i/liquid-veil-spray-foundation-dark-swatch.jpg	39.00 USD	31.00 USD	 	in stock	0.21 lb	Pur Cosmetics	951242040	new	Pur Category > Makeup > Face > Foundation,Pur Category > Makeup > Face,Pur Category > Makeup > Shop All	 	 	FALSE	 	847137014100	847137014100	951242040
951111120	 	M.M.C. Moisturizer	Goodnight Dryness Put lines and wrinkles to bed for good with the ultimate anti-aging moisturizer and night cream. Mineral Moisture Complex (now called MMC) works while you sleep to reverse the visible signs of aging, environmental stress and free radical damage. This moisture-rich cream and anti-aging, hydrating moisturizer is clinically proven to reduce the appearance of wrinkles by 30% in 14 days and is proven to improve the appearance of skin tone and texture in as little as 10 days.	https://www.purcosmetics.com/m-m-c?utm_source=google_shopping	https://www.purcosmetics.com/media/catalog/product/m/./m.m.c.-cap-off-to-side.jpg	https://www.purcosmetics.com/media/catalog/product/m/./m.m.c.-cap-on.jpg,https://www.purcosmetics.com/media/catalog/product/m/./m.m.c.-swatch.jpg	38.00 USD	 	 	in stock	0.50 lb	Pur Cosmetics	951111120	new	Pur Category > Makeup > Best Sellers,Pur Category > Skincare > Best Sellers,Pur Category > Skincare > Moisturizers	 	 	FALSE	 	847137008260	847137008260	951111120
951360010	 	Marble Powder Spice	Bronze, Brighten and Define The rich, earthy pigments of Universal Marble Powder in Spice add an all-over definition to the face by enhancing eyes, lips and cheeks while nourishing skin with shea butter and vitamin E. The mosaic blend of copper, cinnamon and pearl is ideal for women of colour.	https://www.purcosmetics.com/marble-powder-spice?utm_source=google_shopping	https://www.purcosmetics.com/media/catalog/product/m/a/marble-powder-spice-open.jpg	https://www.purcosmetics.com/media/catalog/product/m/a/marble-powder-spice-closed.jpg,https://www.purcosmetics.com/media/catalog/product/m/a/marble-powder-spice-swatch.jpg	23.50 USD	17.00 USD	2018-09-28T00:00:00-04:00/2020-03-05T23:59:59-05:00	in stock	0.13 lb	Pur Cosmetics	951360010	new	Pur Category > Makeup > Cheeks > Blush,Pur Category > Makeup > Cheeks,Pur Category > Makeup > Shop All	 	 	FALSE	 	878147004782	878147004782	951360010
951101110	 	Melt Away Makeup Emulsifier	Makeup Be Gone Melt away makeup and nourish the skin with this gentle yet highly effective makeup remover for all skin types. Over a dozen natural oils and extracts combine to dissolve all traces of makeup including stubborn waterproof and long-wear makeup! Melt Away breaks down dirt, pigment and excess oils to keep skin looking clean, clear and radiantly shine-free!	https://www.purcosmetics.com/melt-away?utm_source=google_shopping	https://www.purcosmetics.com/media/catalog/product/m/e/melt-away-cap-on.jpg	https://www.purcosmetics.com/media/catalog/product/m/e/melt-away-swatch.jpg	23.00 USD	 	 	in stock	0.34 lb	Pur Cosmetics	951101110	new	Pur Category > Skincare > Cleansers,Pur Category > Makeup > Shop All,Pur Category > Skincare > Shop All	 	 	FALSE	 	847137008307	847137008307	951101110
951331010	 	Mineral Glow	Perfect A Golden GlowMineral Glow’s micronized mineral powder has rich, golden undertones to add a sun-kissed contour to your complexion. A staple for PÜR aficionados, use it as a quick fix bronzer for an all-year healthy glow.	https://www.purcosmetics.com/mineral-glow?utm_source=google_shopping	https://www.purcosmetics.com/media/catalog/product/m/i/mineral-glow-bronzer-open.jpg	https://www.purcosmetics.com/media/catalog/product/m/i/mineral-glow-bronzer-closed.jpg,https://www.purcosmetics.com/media/catalog/product/m/i/mineral-glow-bronzer-swatch.jpg	25.00 USD	20.00 USD	2018-07-24T00:00:00-04:00/2020-03-05T23:59:59-05:00	in stock	0.13 lb	Pur Cosmetics	951331010	new	Pur Category > Makeup > Cheeks > Bronzer & Contour,Pur Category > Makeup > Shop All,Pur Category > Sale	 	 	FALSE	 	878147000678	878147000678	951331010
951113110	 	Miracle Mist Hydrating Spray	70 Good Reasons Miracle Mist hydrating face spray instantly moisturizes dry, tired and stressed skin with more than 70 essential vitamins, minerals, antioxidants and amino acids. A favorite among professional makeup artists, this super-hydrating skin quencher also works as a setting spray and helps set mineral makeup for long-lasting perfection.	https://www.purcosmetics.com/miracle-mist-8oz?utm_source=google_shopping	https://www.purcosmetics.com/media/catalog/product/m/i/miracle-mist-cap-on.jpg	 	19.00 USD	15.00 USD	 	out of stock	0.75 lb	Pur Cosmetics	951113110	new	Pur Category > Sale,Pur Category	 	 	FALSE	 	847137008284	847137008284	951113110
11540	 	Perfect Fit Eye Shadow Trio	Explore your beauty's innermost depths with shades that capture the many sides of you. Expertly chosen by master makeup artists, these dazzling trios express a broad range of moods and emotions. With built-in firming ingredients and light-diffusing mineral spheres, each shade helps create a velvety smooth, crease-free finish.	https://www.purcosmetics.com/perfect-fit-eye-shadow-trio?utm_source=google_shopping	https://www.purcosmetics.com/media/catalog/product/p/e/perfect-fit-eye-shadow-jet-setter-1000x1000_1.jpg	https://www.purcosmetics.com/media/catalog/product/p/e/perfect-fit-eye-shadow-trio-ladyluck_1.jpg,https://www.purcosmetics.com/media/catalog/product/p/e/perfect-fit-eye-shadow-trio-jetsetter.jpg,https://www.purcosmetics.com/media/catalog/product/p/e/perfect-fit-eye-shadow-trio-matchmaker.jpg,https://www.purcosmetics.com/media/catalog/product/p/e/perfect-fit-eye-shadow-trio-classicbeauty.jpg,https://www.purcosmetics.com/media/catalog/product/p/e/perfect-fit-eye-shadow-trio-freespirit.jpg,https://www.purcosmetics.com/media/catalog/product/p/e/perfect-fit-eye-shadow-trio-rebel.jpg,https://www.purcosmetics.com/media/catalog/product/p/e/perfect-fit-eye-shadow-trio-rockgoddess.jpg,https://www.purcosmetics.com/media/catalog/product/p/e/perfect-fit-eye-shadow-trio-bohemianbombshell_1.jpg,https://www.purcosmetics.com/media/catalog/product/p/e/perfect-fit-eye-shadow-trio-littlemissperfect_1.jpg,https://www.purcosmetics.com/media/catalog/product/p/e/perfect-fit-eye-shadow-trio-wildchild.jpg	26.00 USD	7.00 USD	2017-09-28T00:00:00-04:00/2020-03-05T23:59:59-05:00	in stock	0.06 lb	Pur Cosmetics	11540	new	Pur Category > Makeup > Eyes,Pur Category	 	 	FALSE	 	 	 	11540
951390010	11540	Perfect Fit Eye Shadow Trio in Bohemian Bombshell	Explore your beauty's innermost depths with shades that capture the many sides of you. Expertly chosen by master makeup artists, these dazzling palettes express a broad range of moods and emotions. And with built-in firming ingredients and light-diffusing mineral spheres, each shade helps create a velvety smooth, line-free finish - even after the color comes off!	https://www.purcosmetics.com/perfect-fit-eye-shadow-trio?utm_source=google_shopping	https://www.purcosmetics.com/media/catalog/product/p/e/perfect-fit-eye-shadow-bohemian-bombshell-1000x1000.jpg	 	26.00 USD	7.00 USD	2017-09-28T00:00:00-04:00/2020-03-05T23:59:59-05:00	in stock	0.06 lb	Pur Cosmetics	951390010	new	Pur Category > Makeup > Eyes,Pur Category	 	 	FALSE	 	847137003814	847137003814	951390010
951390030	11540	Perfect Fit Eye Shadow Trio in Rock Goddess	Explore your beauty's innermost depths with shades that capture the many sides of you. Expertly chosen by master makeup artists, these dazzling palettes express a broad range of moods and emotions. And with built-in firming ingredients and light-diffusing mineral spheres, each shade helps create a velvety smooth, line-free finish - even after the color comes off!	https://www.purcosmetics.com/perfect-fit-eye-shadow-trio?utm_source=google_shopping	https://www.purcosmetics.com/media/catalog/product/p/e/perfect-fit-eye-shadow-rock-goddess-1000x1000.jpg	https://www.purcosmetics.com/media/catalog/product/s/a/sale_perfect-fit-trio_rock-goddess_hover.jpg	26.00 USD	7.00 USD	2017-09-28T00:00:00-04:00/2020-03-05T23:59:59-05:00	in stock	0.06 lb	Pur Cosmetics	951390030	new	Pur Category > Makeup > Eyes,Pur Category	 	 	FALSE	 	847137003838	847137003838	951390030
951390040	11540	Perfect Fit Eye Shadow Trio in Rebel	Explore your beauty's innermost depths with shades that capture the many sides of you. Expertly chosen by master makeup artists, these dazzling palettes express a broad range of moods and emotions. And with built-in firming ingredients and light-diffusing mineral spheres, each shade helps create a velvety smooth, line-free finish - even after the color comes off!	https://www.purcosmetics.com/perfect-fit-eye-shadow-trio?utm_source=google_shopping	https://www.purcosmetics.com/media/catalog/product/p/e/perfect-fit-eye-shadow-rebel-1000x1000.jpg	 	26.00 USD	7.00 USD	2017-09-28T00:00:00-04:00/2020-03-05T23:59:59-05:00	in stock	0.06 lb	Pur Cosmetics	951390040	new	Pur Category > Makeup > Eyes,Pur Category	 	 	FALSE	 	847137003845	847137003845	951390040
951390050	11540	Perfect Fit Eye Shadow Trio in Free Spirit	Explore your beauty's innermost depths with shades that capture the many sides of you. Expertly chosen by master makeup artists, these dazzling palettes express a broad range of moods and emotions. And with built-in firming ingredients and light-diffusing mineral spheres, each shade helps create a velvety smooth, line-free finish - even after the color comes off!	https://www.purcosmetics.com/perfect-fit-eye-shadow-trio?utm_source=google_shopping	https://www.purcosmetics.com/media/catalog/product/p/e/perfect-fit-eye-shadow-free-spirit-1000x1000.jpg	https://www.purcosmetics.com/media/catalog/product/s/a/sale_perfect-fit-trio_freespirit_hover.jpg	26.00 USD	7.00 USD	2017-09-28T00:00:00-04:00/2020-03-05T23:59:59-05:00	in stock	0.06 lb	Pur Cosmetics	951390050	new	Pur Category > Makeup > Eyes,Pur Category	 	 	FALSE	 	847137003852	847137003852	951390050
951390070	11540	Perfect Fit Eye Shadow Trio in Wild Child	Explore your beauty's innermost depths with shades that capture the many sides of you. Expertly chosen by master makeup artists, these dazzling palettes express a broad range of moods and emotions. And with built-in firming ingredients and light-diffusing mineral spheres, each shade helps create a velvety smooth, line-free finish - even after the color comes off!	https://www.purcosmetics.com/perfect-fit-eye-shadow-trio?utm_source=google_shopping	https://www.purcosmetics.com/media/catalog/product/p/e/perfect-fit-eye-shadow-wild-child-1000x1000.jpg	https://www.purcosmetics.com/media/catalog/product/s/a/sale_perfect-fit-trio_wildchild_hover.jpg	26.00 USD	7.00 USD	2017-09-28T00:00:00-04:00/2020-03-05T23:59:59-05:00	in stock	0.06 lb	Pur Cosmetics	951390070	new	Pur Category > Makeup > Eyes,Pur Category	 	 	FALSE	 	847137003876	847137003876	951390070
951390080	11540	Perfect Fit Eye Shadow Trio in Matchmaker	Explore your beauty's innermost depths with shades that capture the many sides of you. Expertly chosen by master makeup artists, these dazzling palettes express a broad range of moods and emotions. And with built-in firming ingredients and light-diffusing mineral spheres, each shade helps create a velvety smooth, line-free finish - even after the color comes off!	https://www.purcosmetics.com/perfect-fit-eye-shadow-trio?utm_source=google_shopping	https://www.purcosmetics.com/media/catalog/product/p/e/perfect-fit-eye-shadow-matchmaker-1000x1000.jpg	https://www.purcosmetics.com/media/catalog/product/s/a/sale_perfect-fit-trio_matchmaker_hover.jpg	26.00 USD	7.00 USD	2017-09-28T00:00:00-04:00/2020-03-05T23:59:59-05:00	in stock	0.06 lb	Pur Cosmetics	951390080	new	Pur Category > Makeup > Eyes,Pur Category	 	 	FALSE	 	847137003883	847137003883	951390080
951390090	11540	Perfect Fit Eye Shadow Trio in Jetsetter	Explore your beauty's innermost depths with shades that capture the many sides of you. Expertly chosen by master makeup artists, these dazzling palettes express a broad range of moods and emotions. And with built-in firming ingredients and light-diffusing mineral spheres, each shade helps create a velvety smooth, line-free finish - even after the color comes off!	https://www.purcosmetics.com/perfect-fit-eye-shadow-trio?utm_source=google_shopping	https://www.purcosmetics.com/media/catalog/product/p/e/perfect-fit-eye-shadow-jet-setter-1000x1000.jpg	https://www.purcosmetics.com/media/catalog/product/s/a/sale_perfect-fit-trio_jetsetter_hover.jpg	26.00 USD	7.00 USD	2017-09-28T00:00:00-04:00/2020-03-05T23:59:59-05:00	in stock	0.06 lb	Pur Cosmetics	951390090	new	Pur Category > Makeup > Eyes,Pur Category	 	 	FALSE	 	847137003890	847137003890	951390090
951390100	11540	Perfect Fit Eye Shadow Trio in Lady Luck	Explore your beauty's innermost depths with shades that capture the many sides of you. Expertly chosen by master makeup artists, these dazzling palettes express a broad range of moods and emotions. And with built-in firming ingredients and light-diffusing mineral spheres, each shade helps create a velvety smooth, line-free finish - even after the color comes off!	https://www.purcosmetics.com/perfect-fit-eye-shadow-trio?utm_source=google_shopping	https://www.purcosmetics.com/media/catalog/product/s/a/sale_perfect-fit-trio_luckylady.jpg	https://www.purcosmetics.com/media/catalog/product/s/a/sale_perfect-fit-trio_luckylady_hover.jpg	26.00 USD	7.00 USD	2017-09-28T00:00:00-04:00/2020-03-05T23:59:59-05:00	in stock	0.06 lb	Pur Cosmetics	951390100	new	Pur Category > Makeup > Eyes,Pur Category	 	 	FALSE	 	847137003906	847137003906	951390100
951177010	 	Soak It Up Moisturizer	Dry No More Bye, bye dry skin. Meet the ultimate thirst quencher for a healthier-looking complexion. Soak It Up delivers a mega-dose of oil-free hydration for a visibly softer, smoother look and more comfortable feel. This decadent, dewy cream provides both immediate relief from dryness and long-term moisture loss prevention to keep your skin looking its radiant best.	https://www.purcosmetics.com/soak-it-up?utm_source=google_shopping	https://www.purcosmetics.com/media/catalog/product/s/o/soak-it-up-cap-off-to-side.jpg	https://www.purcosmetics.com/media/catalog/product/s/o/soak-it-up-cap-on.jpg,https://www.purcosmetics.com/media/catalog/product/s/o/soak-it-up-swatch.jpg	34.00 USD	 	 	in stock	0.49 lb	Pur Cosmetics	951177010	new	Pur Category > Skincare > Best Sellers,Pur Category > Skincare > Moisturizers,Pur Category > Skincare > Masks	 	 	FALSE	 	847137007034	847137007034	951177010
951770070	 	Start Now 4-Piece Essentials Collection in Dark	This PÜR Cosmetics mineral makeup kit is PÜR-fectly packaged and portable! These travel sizes of our most popular mineral makeup products will be the bait to get you hooked on PÜR Cosmetics! Once you have experienced the beauty of mineral makeup, you will never go back to traditional cosmetics.	https://www.purcosmetics.com/start-now-4-piece-essentials-collection-in-dark?utm_source=google_shopping	https://www.purcosmetics.com/media/catalog/product/s/t/start-now-essentials-dark-in-box.jpg	https://www.purcosmetics.com/media/catalog/product/s/t/start-now-essentials-dark-prod-only.jpg,https://www.purcosmetics.com/media/catalog/product/s/t/start-now-essentials-dark-swatch.jpg	37.00 USD	 	 	in stock	0.41 lb	Pur Cosmetics	951770070	new	Pur Category > Makeup > Shop All,Pur Category > Makeup > Kits,Pur Category	 	 	FALSE	 	878147001361	878147001361	951770070
951770050	 	Start Now 4-Piece Essentials Collection in Tan	This PÜR Cosmetics mineral makeup kit is PÜR-fectly packaged and portable! These travel sizes of our most popular mineral makeup products will be the bait to get you hooked on PÜR Cosmetics! Once you have experienced the beauty of mineral makeup, you will never go back to traditional cosmetics.	https://www.purcosmetics.com/start-now-4-piece-essentials-collection-in-tan?utm_source=google_shopping	https://www.purcosmetics.com/media/catalog/product/s/t/start-now-essentials-tan-in-box.jpg	https://www.purcosmetics.com/media/catalog/product/s/t/start-now-essentials-tan-prod-only.jpg,https://www.purcosmetics.com/media/catalog/product/s/t/start-now-essentials-tan-swatch.jpg	37.00 USD	 	 	in stock	0.41 lb	Pur Cosmetics	951770050	new	Pur Category > Makeup > Shop All,Pur Category > Makeup > Kits,Pur Category	 	 	FALSE	 	878147001354	878147001354	951770050
11732	 	4-Piece Flawless Complexion Starter Kit	Interested in PÜR, but not sure where to start? We’ve got you covered – literally! This 5-piece starter kit features our best-selling 4-in-1 Pressed Mineral Makeup, Correcting Primer, Mineral Glow Bronzer, Impact+ Mascara and Chisel Brush – all of the necessities for a flawless face on-the-go. Our bestselling 4-in-1 foundation is adored worldwide for its lightweight feel and no-mess, no-stress application. This all-in-one foundation, concealer, powder and SPF 15 has been clinically proven to correct and prevent your biggest skin concerns. Whether you’re a beginner or a natural-born makeup artist, our starter kit works for every experience level. The best part? All of these products are formulated with good-for-you ingredients, ensuring your skin looks amazing when they’re on and even after you take them off. Coverage and skincare benefits in one perfectly portable set – what more could you ask for!	https://www.purcosmetics.com/start-now-5-piece-beauty-to-go-collection?utm_source=google_shopping	https://www.purcosmetics.com/media/catalog/product/5/-/5-piece-start-now-kit-golden-medium-prod-only.jpg	https://www.purcosmetics.com/media/catalog/product/5/-/5-piece-start-now-kit-medium-dark-prod-only.jpg,https://www.purcosmetics.com/media/catalog/product/5/-/5-piece-start-now-kit-light-prod-only.jpg,https://www.purcosmetics.com/media/catalog/product/5/-/5-piece-start-now-kit-tan-prod-only.jpg,https://www.purcosmetics.com/media/catalog/product/5/-/5-piece-start-now-kit-lighttan-prodonly-72dpi.jpg,https://www.purcosmetics.com/media/catalog/product/5/-/5-piece-start-now-kit-porcelain-prod-only.jpg,https://www.purcosmetics.com/media/catalog/product/5/-/5-piece-start-now-kit-golden-dark-prod-only.jpg,https://www.purcosmetics.com/media/catalog/product/5/-/5-piece-start-now-kit-blush-medium-prod-only.jpg,https://www.purcosmetics.com/media/catalog/product/s/t/starterkit_ba_1.jpg,https://www.purcosmetics.com/media/catalog/product/s/t/starterkit_ba_2.jpg	39.00 USD	31.00 USD	2017-06-10T00:00:00-04:00/2020-03-05T23:59:59-05:00	in stock	0.41 lb	Pur Cosmetics	11732	new	Pur Category > Makeup > Shop All,Pur Category > Sale,Pur Category	 	 	FALSE	 	 	 	11732
951770310	11732	4-Piece Flawless Complexion Starter Kit in Porcelain	Lots of makeup can make you look pretty, but how many can improve clarity or diminish the look of fine lines? More than just a get-the-look kit, Start Now! is an expressway to a naturally flawless complexion. In an eight-week clinical study, women of all ages saw an improvement in their skin's appearance after using this five-piece kit. Up to 89 percent saw a smoother, softer appearance while 75 percent experienced visibly less irritation than before. This portable perfection makeup kit includes Pur's bestselling 4-in-1 Pressed Mineral Makeup (.15 oz/4.3 g), Neutral Primer (.3 fl oz/10 ml), Mineral Glow (.12 oz/3.4 g), Impact+ Mascara (.12 oz/3.4 g) and the Chisel Brush.	https://www.purcosmetics.com/start-now-5-piece-beauty-to-go-collection?utm_source=google_shopping	https://www.purcosmetics.com/media/catalog/product/a/a/aah-startnow-fc-72dpi_7.jpg	https://www.purcosmetics.com/media/catalog/product/5/-/5-piece-start-now-kit-porcelain-prod-only.jpg	39.00 USD	31.00 USD	2017-06-10T00:00:00-04:00/2020-03-05T23:59:59-05:00	in stock	0.41 lb	Pur Cosmetics	951770310	new	Pur Category > Makeup > Shop All,Pur Category > Sale,Pur Category	 	 	FALSE	 	878147008063	878147008063	951770310
951770330	11732	4-Piece Flawless Complexion Starter Kit in Blush Medium	Lots of makeup can make you look pretty, but how many can improve clarity or diminish the look of fine lines? More than just a get-the-look kit, Start Now! is an expressway to a naturally flawless complexion. In an eight-week clinical study, women of all ages saw an improvement in their skin's appearance after using this five-piece kit. Up to 89 percent saw a smoother, softer appearance while 75 percent experienced visibly less irritation than before. This portable perfection makeup kit includes Pur's bestselling 4-in-1 Pressed Mineral Makeup (.15 oz/4.3 g), Neutral Primer (.3 fl oz/10 ml), Mineral Glow (.12 oz/3.4 g), Impact+ Mascara (.12 oz/3.4 g) and the Chisel Brush.	https://www.purcosmetics.com/start-now-5-piece-beauty-to-go-collection?utm_source=google_shopping	https://www.purcosmetics.com/media/catalog/product/a/a/aah-startnow-fc-72dpi_9.jpg	https://www.purcosmetics.com/media/catalog/product/5/-/5-piece-start-now-kit-blush-medium-prod-only.jpg	39.00 USD	31.00 USD	2017-06-10T00:00:00-04:00/2020-03-05T23:59:59-05:00	out of stock	0.41 lb	Pur Cosmetics	951770330	new	Pur Category > Makeup > Shop All,Pur Category > Sale,Pur Category	 	 	FALSE	 	878147008087	878147008087	951770330
951770340	11732	Start Now 4-Piece Beauty-to-Go Collection in Golden Medium	Lots of makeup can make you look pretty, but how many can improve clarity or diminish the look of fine lines? More than just a get-the-look kit, Start Now! is an expressway to a naturally flawless complexion. In an eight-week clinical study, women of all ages saw an improvement in their skin's appearance after using this five-piece kit. Up to 89 percent saw a smoother, softer appearance while 75 percent experienced visibly less irritation than before. This portable perfection makeup kit includes Pur's bestselling 4-in-1 Pressed Mineral Makeup (.15 oz/4.3 g), Neutral Primer (.3 fl oz/10 ml), Mineral Glow (.12 oz/3.4 g), Impact+ Mascara (.12 oz/3.4 g) and the Chisel Brush.	https://www.purcosmetics.com/start-now-5-piece-beauty-to-go-collection?utm_source=google_shopping	https://www.purcosmetics.com/media/catalog/product/a/a/aah-startnow-fc-72dpi_10.jpg	https://www.purcosmetics.com/media/catalog/product/5/-/5-piece-start-now-kit-golden-medium-prod-only.jpg	39.00 USD	31.00 USD	2017-06-10T00:00:00-04:00/2020-03-05T23:59:59-05:00	in stock	0.41 lb	Pur Cosmetics	951770340	new	Pur Category > Makeup > Shop All,Pur Category > Sale,Pur Category	 	 	FALSE	 	878147008094	878147008094	951770340
951770350	11732	Start Now 4-Piece Beauty-to-Go Collection in Light Tan	Lots of makeup can make you look pretty, but how many can improve clarity or diminish the look of fine lines? More than just a get-the-look kit, Start Now! is an expressway to a naturally flawless complexion. In an eight-week clinical study, women of all ages saw an improvement in their skin's appearance after using this five-piece kit. Up to 89 percent saw a smoother, softer appearance while 75 percent experienced visibly less irritation than before. This portable perfection makeup kit includes Pur's bestselling 4-in-1 Pressed Mineral Makeup (.15 oz/4.3 g), Neutral Primer (.3 fl oz/10 ml), Mineral Glow (.12 oz/3.4 g), Impact+ Mascara (.12 oz/3.4 g) and the Chisel Brush.	https://www.purcosmetics.com/start-now-5-piece-beauty-to-go-collection?utm_source=google_shopping	https://www.purcosmetics.com/media/catalog/product/a/a/aah-startnow-fc-72dpi_11.jpg	https://www.purcosmetics.com/media/catalog/product/5/-/5-piece-start-now-kit-light-tan-prod-only.jpg	39.00 USD	31.00 USD	2017-06-10T00:00:00-04:00/2020-03-05T23:59:59-05:00	in stock	0.41 lb	Pur Cosmetics	951770350	new	Pur Category > Makeup > Shop All,Pur Category > Sale,Pur Category	 	 	FALSE	 	878147008100	878147008100	951770350
951770360	11732	4-Piece Flawless Complexion Starter Kit in Tan	Lots of makeup can make you look pretty, but how many can improve clarity or diminish the look of fine lines? More than just a get-the-look kit, Start Now! is an expressway to a naturally flawless complexion. In an eight-week clinical study, women of all ages saw an improvement in their skin's appearance after using this five-piece kit. Up to 89 percent saw a smoother, softer appearance while 75 percent experienced visibly less irritation than before. This portable perfection makeup kit includes Pur's bestselling 4-in-1 Pressed Mineral Makeup (.15 oz/4.3 g), Neutral Primer (.3 fl oz/10 ml), Mineral Glow (.12 oz/3.4 g), Impact+ Mascara (.12 oz/3.4 g) and the Chisel Brush.	https://www.purcosmetics.com/start-now-5-piece-beauty-to-go-collection?utm_source=google_shopping	https://www.purcosmetics.com/media/catalog/product/a/a/aah-startnow-fc-72dpi_12.jpg	https://www.purcosmetics.com/media/catalog/product/5/-/5-piece-start-now-kit-tan-prod-only.jpg	39.00 USD	31.00 USD	2017-06-10T00:00:00-04:00/2020-03-05T23:59:59-05:00	in stock	0.41 lb	Pur Cosmetics	951770360	new	Pur Category > Makeup > Shop All,Pur Category > Sale,Pur Category	 	 	FALSE	 	878147008117	878147008117	951770360
951770370	11732	4-Piece Flawless Complexion Starter Kit in Medium Dark	Lots of makeup can make you look pretty, but how many can improve clarity or diminish the look of fine lines? More than just a get-the-look kit, Start Now! is an expressway to a naturally flawless complexion. In an eight-week clinical study, women of all ages saw an improvement in their skin's appearance after using this five-piece kit. Up to 89 percent saw a smoother, softer appearance while 75 percent experienced visibly less irritation than before. This portable perfection makeup kit includes Pur's bestselling 4-in-1 Pressed Mineral Makeup (.15 oz/4.3 g), Neutral Primer (.3 fl oz/10 ml), Mineral Glow (.12 oz/3.4 g), Impact+ Mascara (.12 oz/3.4 g) and the Chisel Brush.	https://www.purcosmetics.com/start-now-5-piece-beauty-to-go-collection?utm_source=google_shopping	https://www.purcosmetics.com/media/catalog/product/a/a/aah-startnow-fc-72dpi_13.jpg	https://www.purcosmetics.com/media/catalog/product/5/-/5-piece-start-now-kit-medium-dark-prod-only.jpg	39.00 USD	31.00 USD	2017-06-10T00:00:00-04:00/2020-03-05T23:59:59-05:00	in stock	0.41 lb	Pur Cosmetics	951770370	new	Pur Category > Makeup > Shop All,Pur Category > Sale,Pur Category	 	 	FALSE	 	878147008124	878147008124	951770370
951770380	11732	4-Piece Flawless Complexion Starter Kit in Golden Dark	Lots of makeup can make you look pretty, but how many can improve clarity or diminish the look of fine lines? More than just a get-the-look kit, Start Now! is an expressway to a naturally flawless complexion. In an eight-week clinical study, women of all ages saw an improvement in their skin's appearance after using this five-piece kit. Up to 89 percent saw a smoother, softer appearance while 75 percent experienced visibly less irritation than before. This portable perfection makeup kit includes Pur's bestselling 4-in-1 Pressed Mineral Makeup (.15 oz/4.3 g), Neutral Primer (.3 fl oz/10 ml), Mineral Glow (.12 oz/3.4 g), Impact+ Mascara (.12 oz/3.4 g) and the Chisel Brush.	https://www.purcosmetics.com/start-now-5-piece-beauty-to-go-collection?utm_source=google_shopping	https://www.purcosmetics.com/media/catalog/product/a/a/aah-startnow-fc-72dpi_14.jpg	https://www.purcosmetics.com/media/catalog/product/5/-/5-piece-start-now-kit-golden-dark-prod-only.jpg	39.00 USD	31.00 USD	2017-06-10T00:00:00-04:00/2020-03-05T23:59:59-05:00	in stock	0.41 lb	Pur Cosmetics	951770380	new	Pur Category > Makeup > Shop All,Pur Category > Sale,Pur Category	 	 	FALSE	 	878147008131	878147008131	951770380
951781010	 	Start Now! Skincare Starter Kit	Flawless Skin Kit A flawless complexion starts with superior skincare. PÜR’s Start Now! Skincare Edition puts you on the path to complexion perfection in four easy steps. This all-in-one, travel-friendly skincare kit is clinically proven to improve the skin's overall look and feel. Start Now! Skincare Starter Kit includes mini Miracle Mist, mini Simplicity Soothing Gentle Cleaners, mini Soak It Up Intense Hydrating Moisturizer and mini Dirty Girl Detoxifying Mudd Masque. In an eight-week clinical study using the Start Now! Skincare Edition: 98% of users noticed a softer, smoother texture, 93% of users saw a more vibrant, healthy radiance, and 91% of users reported an increase in hydration.	https://www.purcosmetics.com/start-now-skincare-edition?utm_source=google_shopping	https://www.purcosmetics.com/media/catalog/product/s/k/skincare-starter-kit-prod-only.jpg	https://www.purcosmetics.com/media/catalog/product/s/k/skincare-starter-kit-products-in-box.jpg,https://www.purcosmetics.com/media/catalog/product/p/u/pur-day-26582_retouched_2.jpg	29.00 USD	 	 	in stock	0.43 lb	Pur Cosmetics	951781010	new	Pur Category > Makeup > Kits,Pur Category > Skincare > Kits,Pur Category > Makeup > Shop All	 	 	FALSE	 	847137008338	847137008338	951781010
951144110	 	Tone Up Eye Serum	Wake Up Eyes Younger-looking eyes are within sight. This triple-action eye serum firms, lifts and smoothes away the look of puffiness, dark circles, lines and wrinkles for total eye fitness. This anti-wrinkle eye cream is made with a concentrated blend of proven, problem-solving ingredients to bring stressed, tired-looking eyes back to life. Clinical results of key ingredients in the Tone Up eye serum showed: 66% increase in skin hydration after 14 days 60% reduction in skin roughness after 56 days 50% reduction in the appearance of wrinkle depth after 28 days	https://www.purcosmetics.com/tone-up?utm_source=google_shopping	https://www.purcosmetics.com/media/catalog/product/t/o/tone-up-750x750.jpg	https://www.purcosmetics.com/media/catalog/product/t/o/tone-up-cap-on.jpg,https://www.purcosmetics.com/media/catalog/product/t/o/tone-up-swatch.jpg	37.00 USD	 	 	in stock	0.18 lb	Pur Cosmetics	951144110	new	Pur Category > Makeup > Best Sellers,Pur Category > Makeup > Eyes,Pur Category > Skincare > Best Sellers	 	 	FALSE	 	847137008277	847137008277	951144110
951663010	 	Utility Mineral Makeup Brush	No Groove Untouched The Utility Mineral Makeup Brush is specifically designed for those small and hard-to-reach areas. The Utility Makeup Brush effectively masks under-eye circles, broken capillaries and blemishes with superior coverage. Made of all-natural, cruelty-free goat, sable and pony hair, the Utility Makeup Brush feels soft against your skin and helps you achieve a flawless finish.	https://www.purcosmetics.com/utility-brush?utm_source=google_shopping	https://www.purcosmetics.com/media/catalog/product/u/t/utility-mineral-brush-1000x1000.jpg	 	16.00 USD	10.00 USD	2017-10-31T00:00:00-04:00/2020-03-05T23:59:59-05:00	in stock	0.03 lb	Pur Cosmetics	951663010	new	Pur Category > Makeup > Brushes & Tools,Pur Category > Sale,Pur Category	 	 	FALSE	 	878147001262	878147001262	951663010
951453010	 	Volume Vixen Mascara	Bigger, Badder Lashes There’s volume and then there’s false lash volume. Powered by Keratin, PÜR’s latest mascara innovation brings you false lash volume, separation, strength and length straight from the tube! This powerhouse mascara infuses lashes with nourishing hydration for a visibly thicker, fuller effect from root to tip while high-performance, ultra-light polymers deliver maximum build without clumping or weighing your lashes down. And with our advanced application wand with reservoirs, getting flawless full volume lashes is easy with just one application.	https://www.purcosmetics.com/volume-vixen?utm_source=google_shopping	https://www.purcosmetics.com/media/catalog/product/v/o/volume-vixen-mascara-cap-on-appl-to-side.jpg	https://www.purcosmetics.com/media/catalog/product/v/o/volume-vixen-mascara-cap-on.jpg,https://www.purcosmetics.com/media/catalog/product/v/o/volume-vixen-mascara-swatch.jpg	21.00 USD	 	 	in stock	0.05 lb	Pur Cosmetics	951453010	new	Pur Category > Makeup > Eyes > Mascara,Pur Category > Makeup > Eyes,Pur Category > Makeup > Shop All	 	 	FALSE	 	847137005528	847137005528	951453010
11796	 	Wake Up Brow	Sculpt & Highlight Open your eyes to bold new drama and definition! This dual-ended, self-sharpening eyebrow pencil delivers a wake-up call to eyes with a double dose of colour and illumination. Perfect your brows in a blink with this multitasking tool that includes a shaping brush and Hello Bright Eyes soft pink illuminator.	https://www.purcosmetics.com/wake-up-brow?utm_source=google_shopping	https://www.purcosmetics.com/media/catalog/product/w/a/wakeup-brow-latte-cap-off-to-side.jpg	https://www.purcosmetics.com/media/catalog/product/w/a/wakeup-brow-blonde-roast-cap-off-to-side_1.jpg,https://www.purcosmetics.com/media/catalog/product/w/a/wakeup-brow-mocha-cap-off-to-side_1.jpg,https://www.purcosmetics.com/media/catalog/product/w/a/wakeup-brow-espresso-cap-off-to-side_1.jpg,https://www.purcosmetics.com/media/catalog/product/w/a/wakeup-brow-blonde-roast-cap-on.jpg,https://www.purcosmetics.com/media/catalog/product/w/a/wakeup-brow-mocha-cap-on.jpg,https://www.purcosmetics.com/media/catalog/product/w/a/wakeup-brow-espresso-cap-on.jpg,https://www.purcosmetics.com/media/catalog/product/w/a/wakeup-brow-latte-cap-on.jpg,https://www.purcosmetics.com/media/catalog/product/w/a/wakeup-brow-blonde-roast-swatch.jpg,https://www.purcosmetics.com/media/catalog/product/w/a/wakeup-brow-mocha-swatch.jpg	24.00 USD	 	 	in stock	0.04 lb	Pur Cosmetics	11796	new	Pur Category > Makeup > Eyes > Brows,Pur Category > Makeup > Eyes,Pur Category > Makeup > Shop All	 	 	FALSE	 	 	 	11796
951445020	11796	Wake Up Brow in Latte	Sculpt & Highlight Open your eyes to bold new heights of drama and definition! This dual-ended, self-sharpening eyebrow pencil delivers a wakeup call to eyes with a double dose of colour and illumination. Perfect your brows in a blink with the brow pencil tip in Blonde Roast, Latte, Espresso or Mocha and shaping brush, and make your eyes appear bigger and brighter with Hello Bright Eyes soft pink illuminator.	https://www.purcosmetics.com/wake-up-brow?utm_source=google_shopping	https://www.purcosmetics.com/media/catalog/product/w/a/wakeup-brow-latte-cap-off-to-side.jpg	https://www.purcosmetics.com/media/catalog/product/w/a/wakeup-brow-latte-swatch.jpg	24.00 USD	 	 	in stock	0.04 lb	Pur Cosmetics	951445020	new	Pur Category > Makeup > Eyes > Brows,Pur Category > Makeup > Eyes,Pur Category > Makeup > Shop All	 	 	FALSE	 	847137013394	847137013394	951445020
951445030	11796	Wake Up Brow in Espresso	Sculpt & Highlight Open your eyes to bold new heights of drama and definition! This dual-ended, self-sharpening eyebrow pencil delivers a wakeup call to eyes with a double dose of colour and illumination. Perfect your brows in a blink with the brow pencil tip in Blonde Roast, Latte, Espresso or Mocha and shaping brush, and make your eyes appear bigger and brighter with Hello Bright Eyes soft pink illuminator.	https://www.purcosmetics.com/wake-up-brow?utm_source=google_shopping	https://www.purcosmetics.com/media/catalog/product/w/a/wakeup-brow-espresso-cap-off-to-side.jpg	https://www.purcosmetics.com/media/catalog/product/w/a/wakeup-brow-espresso-cap-on.jpg,https://www.purcosmetics.com/media/catalog/product/w/a/wakeup-brow-espresso-swatch.jpg	24.00 USD	 	 	in stock	0.04 lb	Pur Cosmetics	951445030	new	Pur Category > Makeup > Eyes > Brows,Pur Category > Makeup > Eyes,Pur Category > Makeup > Shop All	 	 	FALSE	 	847137013400	847137013400	951445030
951445040	11796	Wake Up Brow in Mocha	Sculpt & Highlight Open your eyes to bold new heights of drama and definition! This dual-ended, self-sharpening eyebrow pencil delivers a wakeup call to eyes with a double dose of colour and illumination. Perfect your brows in a blink with the brow pencil tip in Blonde Roast, Latte, Espresso or Mocha and shaping brush, and make your eyes appear bigger and brighter with Hello Bright Eyes soft pink illuminator.	https://www.purcosmetics.com/wake-up-brow?utm_source=google_shopping	https://www.purcosmetics.com/media/catalog/product/w/a/wakeup-brow-mocha-cap-off-to-side.jpg	https://www.purcosmetics.com/media/catalog/product/w/a/wakeup-brow-mocha-swatch.jpg	24.00 USD	 	 	in stock	0.04 lb	Pur Cosmetics	951445040	new	Pur Category > Makeup > Eyes > Brows,Pur Category > Makeup > Eyes,Pur Category > Makeup > Shop All	 	 	FALSE	 	847137013417	847137013417	951445040
951445050	11796	Wake Up Brow in Blonde Roast	Open your eyes to bold new heights of drama and definition! This dual-ended, self-sharpening eyebrow pencil delivers a wakeup call to eyes with a double dose of colour and illumination. Perfect your brows in a blink with the brow pencil tip in Blonde Roast, Latte, Espresso or Mocha and shaping brush, and make your eyes appear bigger and brighter with Hello Bright Eyes soft pink illuminator.	https://www.purcosmetics.com/wake-up-brow?utm_source=google_shopping	https://www.purcosmetics.com/media/catalog/product/w/a/wakeup-brow-blonde-roast-cap-off-to-side.jpg	https://www.purcosmetics.com/media/catalog/product/w/a/wakeup-brow-blonde-roast-swatch.jpg	24.00 USD	 	 	in stock	0.04 lb	Pur Cosmetics	951445050	new	Pur Category > Makeup > Eyes > Brows,Pur Category > Makeup > Eyes,Pur Category > Makeup > Shop All	 	 	FALSE	 	847137013387	847137013387	951445050
851661010	 	Blush Brush	The Blush Makeup Brush picks up just the right amount of blush for a seamless application of color to highlight and contour your cheek bones. This dome-shaped blush makeup brush gives you a beautiful, even deposit of color every time. The Blush Makeup Brush is made of all-natural, cruelty-free hair, and feels soft against your skin.	https://www.purcosmetics.com/blush-brush-1?utm_source=google_shopping	https://www.purcosmetics.com/media/catalog/product/b/l/blush-brush-1000x1000.jpg	 	16.00 USD	8.00 USD	2017-11-15T00:00:00-05:00/2020-03-05T23:59:59-05:00	in stock	0.03 lb	Pur Cosmetics	851661010	new	Pur Category > Makeup > Brushes & Tools,Pur Category > Makeup,Pur Category > Sale	 	 	FALSE	 	847137022976	847137022976	851661010
951455030	 	Fully Charged Mascara	AS SEEN IN... ALLURE • POPSUGAR •  HEALTH  What it is: An age-defying Fully Charged Mascara Powered by Magnetic Technology that attracts to each individual lash to strengthen, thicken, lengthen and separate for unparalleled performance. What it does: Opposites attract with this cruelty-free, age-defying Fully Charged Mascara Powered by Magnetic Technology that has a revolutionary "magnetic" polymer matrix that wraps a positively charged elastic veil around each lash to instantly lift, separate and define each lash for maximum, long-lasting performance. Fortified with a specialized blend of ingredients to help condition and strengthen to help prevent lash loss. Confidently fight the eyelash aging process as you strengthen, thicken, lengthen and separate eyelashes for gorgeous lashes that wow.	https://www.purcosmetics.com/fully-charged?utm_source=google_shopping	https://www.purcosmetics.com/media/catalog/product/f/u/fully-charged-mascara-capon.jpg	https://www.purcosmetics.com/media/catalog/product/f/u/fully-charged-ba_with-line1080x1080.jpg,https://www.purcosmetics.com/media/catalog/product/f/u/fully-charged-mascara-swatch.jpg	22.00 USD	 	 	in stock	0.94 lb	Pur Cosmetics	951455030	new	Pur Category > Makeup > Eyes > Mascara,Pur Category > Makeup > Best Sellers,Pur Category > Makeup > Eyes	 	 	FALSE	 	847137019068	847137019068	951455030
951679010	 	Powder Foundation Brush	Blur Imperfections With Ease Designed to pick up and evenly distribute powder foundation to erase imperfections. Can be used to apply setting powders for a flawless finish.	https://www.purcosmetics.com/airbrush-powder-foundation-brush?utm_source=google_shopping	https://www.purcosmetics.com/media/catalog/product/p/o/powder-foundation-brush.jpg	 	26.00 USD	 	 	in stock	0.17 lb	Pur Cosmetics	951679010	new	Pur Category > Makeup > Brushes & Tools,Pur Category > Makeup > Shop All,Pur Category > Makeup	 	 	FALSE	 	847137018795	847137018795	951679010
11799	 	Cameo Contour & Highlight Stick	Meet the final word in flawless contouring. PÜR's dual-ended 2-in-1 contour stick adds depth and dimension to your natural features. Natural, light-reflective microspheres emphasize your face’s natural highlights and shadows to highlight your best features and minimize others. This easily blendable, creamy formula sets to a powder and can be used as a foundation.	https://www.purcosmetics.com/cameo-contour-stick?utm_source=google_shopping	https://www.purcosmetics.com/media/catalog/product/c/a/cameo-contour-medium-capoff-.5oz-72dpi_1.jpg	https://www.purcosmetics.com/media/catalog/product/c/a/cameo-contour-dark-capoff-.5oz-72dpi_2.jpg,https://www.purcosmetics.com/media/catalog/product/c/a/cameo-contour-light-capoff-.5oz-72dpi_2.jpg,https://www.purcosmetics.com/media/catalog/product/c/a/cameo-contour-tan-capoff-.5oz-72dpi_1.jpg,https://www.purcosmetics.com/media/catalog/product/c/a/cameo-contour-deep-capoff-.5oz-72dpi.jpg,https://www.purcosmetics.com/media/catalog/product/c/a/cameo-contour-deep-swatch.jpg,https://www.purcosmetics.com/media/catalog/product/c/a/cameo-contour-medium-swatch.jpg,https://www.purcosmetics.com/media/catalog/product/c/a/cameo-contour-tan-swatch.jpg,https://www.purcosmetics.com/media/catalog/product/c/a/cameo-contour-dark-swatch.jpg,https://www.purcosmetics.com/media/catalog/product/c/a/cameo-contour-light-swatch.jpg	39.50 USD	31.00 USD	2018-09-21T00:00:00-04:00/2020-03-05T23:59:59-05:00	in stock	0.14 lb	Pur Cosmetics	11799	new	Pur Category > Makeup > Cheeks > Bronzer & Contour,Pur Category > Makeup > Cheeks,Pur Category > Makeup > Shop All	 	 	FALSE	 	 	 	11799
951245010	11799	Cameo Contour & Highlight Stick in Light	Meet the final word in flawless contouring. PÜR's dual-ended contour stick adds closeup-worthy depth and dimension to your natural features with a creamy formula that sets to a picture-perfect powder finish. With use of natural, light-reflective ingredients that resemble microspheres, this 2-in-1 complexion innovation emphasizes your face’s natural highlights and shadows while simultaneously blurring the look of imperfections, such as dark spots and fine lines. As you apply and blend one or both shades with the Contour Blending Sponge, your skin also absorbs in the skin-perfecting benefits of PÜR’s own Ceretin® Complex—a proprietary blend of hydrating ceramides and age-defying vitamin A! Oil-Free Petrolatum-Free Skin Tone Shade Descriptions: Light - Porcelain & Light 4-in-1 Mineral Makeup; fair to fair with creamy ivory undertones Medium – Blush Medium & Golden Medium 4-in-1 Mineral Makeup; medium beige with blush to golden undertones Tan – Light Tan, Tan, & Medium Tan 4-in-1 Mineral	https://www.purcosmetics.com/cameo-contour-stick?utm_source=google_shopping	https://www.purcosmetics.com/media/catalog/product/c/a/cameo-contour-light-capoff-.5oz-72dpi_1.jpg	https://www.purcosmetics.com/media/catalog/product/c/a/cameo-contour-light-swatch-72dpi.jpg	39.50 USD	31.00 USD	2018-09-21T00:00:00-04:00/2020-03-05T23:59:59-05:00	in stock	5.73 lb	Pur Cosmetics	951245010	new	Pur Category > Makeup > Cheeks > Bronzer & Contour,Pur Category > Makeup > Cheeks,Pur Category > Makeup > Shop All	 	 	FALSE	 	847137009007	847137009007	951245010
951245020	11799	Cameo Contour & Highlight Stick in Medium	Meet the final word in flawless contouring. PÜR's dual-ended contour stick adds closeup-worthy depth and dimension to your natural features with a creamy formula that sets to a picture-perfect powder finish. With use of natural, light-reflective ingredients that resemble microspheres, this 2-in-1 complexion innovation emphasizes your face’s natural highlights and shadows while simultaneously blurring the look of imperfections, such as dark spots and fine lines. As you apply and blend one or both shades with the Contour Blending Sponge, your skin also absorbs in the skin-perfecting benefits of PÜR’s own Ceretin® Complex—a proprietary blend of hydrating ceramides and age-defying vitamin A! Oil-Free Petrolatum-Free Skin Tone Shade Descriptions: Light - Porcelain & Light 4-in-1 Mineral Makeup; fair to fair with creamy ivory undertones Medium – Blush Medium & Golden Medium 4-in-1 Mineral Makeup; medium beige with blush to golden undertones Tan – Light Tan, Tan, & Medium Tan 4-in-1 Mineral	https://www.purcosmetics.com/cameo-contour-stick?utm_source=google_shopping	https://www.purcosmetics.com/media/catalog/product/c/a/cameo-contour-medium-capoff-.5oz-72dpi.jpg	https://www.purcosmetics.com/media/catalog/product/c/a/cameo-contour-medium-swatch-72dpi.jpg	39.50 USD	31.00 USD	2018-09-21T00:00:00-04:00/2020-03-05T23:59:59-05:00	in stock	5.73 lb	Pur Cosmetics	951245020	new	Pur Category > Makeup > Cheeks > Bronzer & Contour,Pur Category > Makeup > Cheeks,Pur Category > Makeup > Shop All	 	 	FALSE	 	847137009038	847137009038	951245020
951245030	11799	Cameo Contour & Highlight Stick in Tan	Meet the final word in flawless contouring. PÜR's dual-ended contour stick adds closeup-worthy depth and dimension to your natural features with a creamy formula that sets to a picture-perfect powder finish. With use of natural, light-reflective ingredients that resemble microspheres, this 2-in-1 complexion innovation emphasizes your face’s natural highlights and shadows while simultaneously blurring the look of imperfections, such as dark spots and fine lines. As you apply and blend one or both shades with the Contour Blending Sponge, your skin also absorbs in the skin-perfecting benefits of PÜR’s own Ceretin® Complex—a proprietary blend of hydrating ceramides and age-defying vitamin A! Oil-Free Petrolatum-Free Skin Tone Shade Descriptions: Light - Porcelain & Light 4-in-1 Mineral Makeup; fair to fair with creamy ivory undertones Medium – Blush Medium & Golden Medium 4-in-1 Mineral Makeup; medium beige with blush to golden undertones Tan – Light Tan, Tan, & Medium Tan 4-in-1 Mineral	https://www.purcosmetics.com/cameo-contour-stick?utm_source=google_shopping	https://www.purcosmetics.com/media/catalog/product/c/a/cameo-contour-tan-capoff-.5oz-72dpi.jpg	https://www.purcosmetics.com/media/catalog/product/c/a/cameo-contour-tan-swatch-72dpi_-_copy.jpg	39.50 USD	31.00 USD	2018-09-21T00:00:00-04:00/2020-03-05T23:59:59-05:00	in stock	5.73 lb	Pur Cosmetics	951245030	new	Pur Category > Makeup > Cheeks > Bronzer & Contour,Pur Category > Makeup > Cheeks,Pur Category > Makeup > Shop All	 	 	FALSE	 	847137009335	847137009335	951245030
951245040	11799	Cameo Contour & Highlight Stick in Dark	Meet the final word in flawless contouring. PÜR's dual-ended contour stick adds closeup-worthy depth and dimension to your natural features with a creamy formula that sets to a picture-perfect powder finish. With use of natural, light-reflective ingredients that resemble microspheres, this 2-in-1 complexion innovation emphasizes your face’s natural highlights and shadows while simultaneously blurring the look of imperfections, such as dark spots and fine lines. As you apply and blend one or both shades with the Contour Blending Sponge, your skin also absorbs in the skin-perfecting benefits of PÜR’s own Ceretin® Complex—a proprietary blend of hydrating ceramides and age-defying vitamin A! Oil-Free Petrolatum-Free Skin Tone Shade Descriptions: Light - Porcelain & Light 4-in-1 Mineral Makeup; fair to fair with creamy ivory undertones Medium – Blush Medium & Golden Medium 4-in-1 Mineral Makeup; medium beige with blush to golden undertones Tan – Light Tan, Tan, & Medium Tan 4-in-1 Mineral	https://www.purcosmetics.com/cameo-contour-stick?utm_source=google_shopping	https://www.purcosmetics.com/media/catalog/product/c/a/cameo-contour-dark-capoff-.5oz-72dpi_1.jpg	https://www.purcosmetics.com/media/catalog/product/c/a/cameo-contour-dark-swatch-72dpi.jpg	39.50 USD	31.00 USD	2018-09-21T00:00:00-04:00/2020-03-05T23:59:59-05:00	in stock	5.73 lb	Pur Cosmetics	951245040	new	Pur Category > Makeup > Cheeks > Bronzer & Contour,Pur Category > Makeup > Cheeks,Pur Category > Makeup > Shop All	 	 	FALSE	 	847137000653	847137000653	951245040
951245050	11799	Cameo Contour & Highlight Stick in Deep	Meet the final word in flawless contouring. PÜR's dual-ended contour stick adds closeup-worthy depth and dimension to your natural features with a creamy formula that sets to a picture-perfect powder finish. With use of natural, light-reflective ingredients that resemble microspheres, this 2-in-1 complexion innovation emphasizes your face’s natural highlights and shadows while simultaneously blurring the look of imperfections, such as dark spots and fine lines. As you apply and blend one or both shades with the Contour Blending Sponge, your skin also absorbs in the skin-perfecting benefits of PÜR’s own Ceretin® Complex—a proprietary blend of hydrating ceramides and age-defying vitamin A! Oil-Free Petrolatum-Free Skin Tone Shade Descriptions: Light - Porcelain & Light 4-in-1 Mineral Makeup; fair to fair with creamy ivory undertones Medium – Blush Medium & Golden Medium 4-in-1 Mineral Makeup; medium beige with blush to golden undertones Tan – Light Tan, Tan, & Medium Tan 4-in-1 Mineral	https://www.purcosmetics.com/cameo-contour-stick?utm_source=google_shopping	https://www.purcosmetics.com/media/catalog/product/c/a/cameo-contour-dark-capoff-.5oz-72dpi.jpg	https://www.purcosmetics.com/media/catalog/product/c/a/cameo-contour-deep-swatch-72dpi.jpg,https://www.purcosmetics.com/media/catalog/product/c/a/cameo-contour-sponge-72dpi.jpg	39.50 USD	31.00 USD	2018-09-21T00:00:00-04:00/2020-03-05T23:59:59-05:00	in stock	0.14 lb	Pur Cosmetics	951245050	new	Pur Category > Makeup > Cheeks > Bronzer & Contour,Pur Category > Makeup > Cheeks,Pur Category > Makeup > Shop All	 	 	FALSE	 	847137000677	847137000677	951245050
11797	 	Hydrafluid Water Serum Foundation	PÜR’s encapsulated water complex delivers Swiss Alps-sourced mineral water deep into the skin to hydrate for lasting radiance. HydraFluid’s lightweight formula satisfies the desire for dewy, breathable, luminous-looking skin and a bare-looking but perfect complexion.	https://www.purcosmetics.com/hydrafluid?utm_source=google_shopping	https://www.purcosmetics.com/media/catalog/product/h/y/hydrafluid-capon_medium_1.jpg	https://www.purcosmetics.com/media/catalog/product/h/y/hydrafluid-capon-light_1.jpg,https://www.purcosmetics.com/media/catalog/product/h/y/hydrafluid-capon-tan_1.jpg,https://www.purcosmetics.com/media/catalog/product/h/y/hydrafluid-capon-dark_1.jpg,https://www.purcosmetics.com/media/catalog/product/h/y/hydrafluid-capon_deep_1.jpg,https://www.purcosmetics.com/media/catalog/product/h/y/hydrafluid-capoff-light_1.jpg,https://www.purcosmetics.com/media/catalog/product/h/y/hydrafluid-capoff-medium_1.jpg,https://www.purcosmetics.com/media/catalog/product/h/y/hydrafluid-capoff-dark_1.jpg,https://www.purcosmetics.com/media/catalog/product/h/y/hydrafluid-capoff-tan_1.jpg,https://www.purcosmetics.com/media/catalog/product/h/y/hydrafluid-capoff-deep_1.jpg	39.00 USD	31.00 USD	2018-09-21T00:00:00-04:00/2020-03-05T23:59:59-05:00	in stock	15.52 lb	Pur Cosmetics	11797	new	Pur Category > Makeup > Face > Foundation,Pur Category > Makeup > Face,Pur Category > Makeup > Shop All	 	 	FALSE	 	 	 	11797
951246010	11797	Hydrafluid in Light	PÜR’s encapsulated water complex delivers Swiss Alps-sourced water to hydrate the skin for lasting radiance while providing silky, medium coverage. HydraFluid water serum foundation is incomparably lightweight yet offers the perfect amount of coverage and satisfies the desire for dewy, breathable, luminous looking skin. This is the chosen foundation to create “bare-looking” but perfect complexion whatever your skin tone or type. Water sourced from the Swiss Alps is known for its high purity and is the ideal mineral water to refresh skin.	https://www.purcosmetics.com/hydrafluid?utm_source=google_shopping	https://www.purcosmetics.com/media/catalog/product/h/y/hydrafluid-capoff-light-water-72dpi.jpg	https://www.purcosmetics.com/media/catalog/product/h/y/hydrafluid-light-swatch-72dpi.jpg	39.00 USD	31.00 USD	2018-09-21T00:00:00-04:00/2020-03-05T23:59:59-05:00	in stock	15.52 lb	Pur Cosmetics	951246010	new	Pur Category > Makeup > Face > Foundation,Pur Category > Makeup > Face,Pur Category > Makeup > Shop All	 	 	FALSE	 	847137020835	847137020835	951246010
951246020	11797	Hydrafluid in Medium	PÜR’s encapsulated water complex delivers Swiss Alps-sourced water to hydrate the skin for lasting radiance while providing silky, medium coverage. HydraFluid water serum foundation is incomparably lightweight yet offers the perfect amount of coverage and satisfies the desire for dewy, breathable, luminous looking skin. This is the chosen foundation to create “bare-looking” but perfect complexion whatever your skin tone or type. Water sourced from the Swiss Alps is known for its high purity and is the ideal mineral water to refresh skin.	https://www.purcosmetics.com/hydrafluid?utm_source=google_shopping	https://www.purcosmetics.com/media/catalog/product/h/y/hydrafluid-capoff-medium-water-72dpi.jpg	https://www.purcosmetics.com/media/catalog/product/h/y/hydrafluid-medium-swatch-72dpi.jpg	39.00 USD	31.00 USD	2018-09-21T00:00:00-04:00/2020-03-05T23:59:59-05:00	out of stock	15.52 lb	Pur Cosmetics	951246020	new	Pur Category > Makeup > Face > Foundation,Pur Category > Makeup > Face,Pur Category > Makeup > Shop All	 	 	FALSE	 	847137020842	847137020842	951246020
951246030	11797	Hydrafluid in Tan	PÜR’s encapsulated water complex delivers Swiss Alps-sourced water to hydrate the skin for lasting radiance while providing silky, medium coverage. HydraFluid water serum foundation is incomparably lightweight yet offers the perfect amount of coverage and satisfies the desire for dewy, breathable, luminous looking skin. This is the chosen foundation to create “bare-looking” but perfect complexion whatever your skin tone or type. Water sourced from the Swiss Alps is known for its high purity and is the ideal mineral water to refresh skin.	https://www.purcosmetics.com/hydrafluid?utm_source=google_shopping	https://www.purcosmetics.com/media/catalog/product/h/y/hydrafluid-capoff-tan-water-72dpi.jpg	https://www.purcosmetics.com/media/catalog/product/h/y/hydrafluid-tan-swatch-72dpi.jpg	39.00 USD	31.00 USD	2018-09-21T00:00:00-04:00/2020-03-05T23:59:59-05:00	in stock	15.52 lb	Pur Cosmetics	951246030	new	Pur Category > Makeup > Face > Foundation,Pur Category > Makeup > Face,Pur Category > Makeup > Shop All	 	 	FALSE	 	847137020859	847137020859	951246030
951246040	11797	Hydrafluid in Dark	PÜR’s encapsulated water complex delivers Swiss Alps-sourced water to hydrate the skin for lasting radiance while providing silky, medium coverage. HydraFluid water serum foundation is incomparably lightweight yet offers the perfect amount of coverage and satisfies the desire for dewy, breathable, luminous looking skin. This is the chosen foundation to create “bare-looking” but perfect complexion whatever your skin tone or type. Water sourced from the Swiss Alps is known for its high purity and is the ideal mineral water to refresh skin.	https://www.purcosmetics.com/hydrafluid?utm_source=google_shopping	https://www.purcosmetics.com/media/catalog/product/h/y/hydrafluid-capoff-dark-72dpi.jpg	https://www.purcosmetics.com/media/catalog/product/h/y/hydrafluid-dark-swatch-72dpi.jpg	39.00 USD	31.00 USD	2018-09-21T00:00:00-04:00/2020-03-05T23:59:59-05:00	in stock	15.52 lb	Pur Cosmetics	951246040	new	Pur Category > Makeup > Face > Foundation,Pur Category > Makeup > Face,Pur Category > Makeup > Shop All	 	 	FALSE	 	847137020866	847137020866	951246040
951246050	11797	Hydrafluid in Deep	PÜR’s encapsulated water complex delivers Swiss Alps-sourced water to hydrate the skin for lasting radiance while providing silky, medium coverage. HydraFluid water serum foundation is incomparably lightweight yet offers the perfect amount of coverage and satisfies the desire for dewy, breathable, luminous looking skin. This is the chosen foundation to create “bare-looking” but perfect complexion whatever your skin tone or type. Water sourced from the Swiss Alps is known for its high purity and is the ideal mineral water to refresh skin.	https://www.purcosmetics.com/hydrafluid?utm_source=google_shopping	https://www.purcosmetics.com/media/catalog/product/h/y/hydrafluid-capon_deep-72dpi.jpg	https://www.purcosmetics.com/media/catalog/product/h/y/hydrafluid-capoff-dark-72dpi_1.jpg,https://www.purcosmetics.com/media/catalog/product/h/y/hydrafluid-deep-swatch-72dpi.jpg	39.00 USD	31.00 USD	2018-09-21T00:00:00-04:00/2020-03-05T23:59:59-05:00	in stock	15.52 lb	Pur Cosmetics	951246050	new	Pur Category > Makeup > Face > Foundation,Pur Category > Makeup > Face,Pur Category > Makeup > Shop All	 	 	FALSE	 	847137020873	847137020873	951246050
11798	 	Matte Liquid Lipstick	Dump those dry matte lipsticks. Velvet Matte Liquid Lipsticks do not flake or dehydrate lips and provide a long-wear true matte finish. Soft, kissable lips and bold colour – it’s everything you want in a Matte.	https://www.purcosmetics.com/velvet-matte-liquid-lipstick?utm_source=google_shopping	https://www.purcosmetics.com/media/catalog/product/m/a/matte-lipstick-obsessed-caponappltoside.jpg	https://www.purcosmetics.com/media/catalog/product/m/a/matte-lipstick-everafter-caponappltoside.jpg,https://www.purcosmetics.com/media/catalog/product/m/a/matte-lipstick-aboutlastnight-caponappltoside.jpg,https://www.purcosmetics.com/media/catalog/product/m/a/matte-lipstick-duttywine-caponappltoside.jpg,https://www.purcosmetics.com/media/catalog/product/m/a/matte-lipstick-ohbea-caponappltoside.jpg,https://www.purcosmetics.com/media/catalog/product/m/a/matte-lipstick-passion-caponappltoside.jpg,https://www.purcosmetics.com/media/catalog/product/m/a/matte-lipstick-innocent-caponappltoside.jpg,https://www.purcosmetics.com/media/catalog/product/m/a/matte-lipstick-fbf-caponappltoside.jpg,https://www.purcosmetics.com/media/catalog/product/m/a/matte-lipstick-addiction-caponappltoside.jpg,https://www.purcosmetics.com/media/catalog/product/m/a/matte-lipstick-fever-caponappltoside.jpg	20.00 USD	10.00 USD	2017-11-30T00:00:00-05:00/2020-03-05T23:59:59-05:00	in stock	0.05 lb	Pur Cosmetics	11798	new	Pur Category > Makeup > Lips,Pur Category > Makeup > Shop All	 	 	FALSE	 	 	 	11798
851550370	11798	Matte Liquid Lipstick in Obsessed	Sumptuous lip color in an innovative mousse texture that glides on with ease and coats lips in a rich and conditioning burst of color in a true matte finish. Designed with color perfecting technology, the formula does not flake or dry lips and provides a long lasting smooth and flawless finish.	https://www.purcosmetics.com/velvet-matte-liquid-lipstick?utm_source=google_shopping	https://www.purcosmetics.com/media/catalog/product/m/a/matte-lipstick-obsessed-caponappltoside-.11oz-72dpi.jpg	https://www.purcosmetics.com/media/catalog/product/m/a/matte-lipstick-obsessed-swatch-72dpi.jpg	20.00 USD	10.00 USD	2017-11-30T00:00:00-05:00/2020-03-05T23:59:59-05:00	in stock	0.05 lb	Pur Cosmetics	851550370	new	Pur Category > Makeup > Lips,Pur Category > Makeup > Shop All	 	 	FALSE	 	847137022853	847137022853	851550370
851550380	11798	Matte Liquid Lipstick in Oh Bae	Sumptuous lip color in an innovative mousse texture that glides on with ease and coats lips in a rich and conditioning burst of color in a true matte finish. Designed with color perfecting technology, the formula does not flake or dry lips and provides a long lasting smooth and flawless finish.	https://www.purcosmetics.com/velvet-matte-liquid-lipstick?utm_source=google_shopping	https://www.purcosmetics.com/media/catalog/product/m/a/matte-lipstick-ohbea-caponappltoside-.11oz-72dpi.jpg	https://www.purcosmetics.com/media/catalog/product/m/a/matte-lipstick-ohbea-swatch-72dpi.jpg	20.00 USD	10.00 USD	2017-11-30T00:00:00-05:00/2020-03-05T23:59:59-05:00	in stock	0.05 lb	Pur Cosmetics	851550380	new	Pur Category > Makeup > Lips,Pur Category > Makeup > Shop All	 	 	FALSE	 	847137022860	847137022860	851550380
851550470	11798	Matte Liquid Lipstick in Ever After	Sumptuous lip color in an innovative mousse texture that glides on with ease and coats lips in a rich and conditioning burst of color in a true matte finish. Designed with color perfecting technology, the formula does not flake or dry lips and provides a long lasting smooth and flawless finish.	https://www.purcosmetics.com/velvet-matte-liquid-lipstick?utm_source=google_shopping	https://www.purcosmetics.com/media/catalog/product/m/a/matte-lipstick-everafter-caponappltoside-.11oz-72dpi.jpg	https://www.purcosmetics.com/media/catalog/product/m/a/matte-lipstick-everafter-swatch-72dpi.jpg	20.00 USD	10.00 USD	2017-11-30T00:00:00-05:00/2020-03-05T23:59:59-05:00	in stock	0.05 lb	Pur Cosmetics	851550470	new	Pur Category > Makeup > Lips,Pur Category > Makeup > Shop All	 	 	FALSE	 	847137022945	847137022945	851550470
851550420	 	Matte Liquid Lipstick in Addiction	Sumptuous lip color in an innovative mousse texture that glides on with ease and coats lips in a rich and conditioning burst of color in a true matte finish. Designed with color perfecting technology, the formula does not flake or dry lips and provides a long lasting smooth and flawless finish.	https://www.purcosmetics.com/velvet-matte-liquid-lipstick-in-addiction?utm_source=google_shopping	https://www.purcosmetics.com/media/catalog/product/m/a/matte-lipstick-addiction-caponappltoside-.11oz-72dpi.jpg	https://www.purcosmetics.com/media/catalog/product/m/a/matte-lipstick-addiction-swatch-72dpi.jpg	20.00 USD	 	 	in stock	0.05 lb	Pur Cosmetics	851550420	new	Pur Category > Makeup > Lips,Pur Category > Makeup > Shop All	 	 	FALSE	 	847137022891	847137022891	851550420
951679060	 	Brow Sculpt & Groom Brush	Brows On Point 2-in-1 essential brush system that will groom and sculpt brows into place.	https://www.purcosmetics.com/brow-sculpt-groom-brush?utm_source=google_shopping	https://www.purcosmetics.com/media/catalog/product/b/r/brow-sculpt-groom-brush.jpg	 	16.00 USD	 	 	in stock	0.02 lb	Pur Cosmetics	951679060	new	Pur Category > Makeup > Brushes & Tools,Pur Category > Makeup > Shop All,Pur Category > Makeup	 	 	FALSE	 	847137018849	847137018849	951679060
951679030	 	Sculpt & Contour Foundation Brush	Contour Like a Pro A tapered brush head to provide definition into the natural contours of the face.	https://www.purcosmetics.com/sculpt-contour-foundation-brush?utm_source=google_shopping	https://www.purcosmetics.com/media/catalog/product/c/o/contour-foundation-brush.jpg	 	24.00 USD	 	 	in stock	0.10 lb	Pur Cosmetics	951679030	new	Pur Category > Makeup > Brushes & Tools,Pur Category > Makeup > Shop All,Pur Category > Makeup	 	 	FALSE	 	847137018818	847137018818	951679030
951679070	 	Blending Crease Brush	Create Eye Envy Slightly larger and more dense than the precision crease brush, this flexible brush is designed to layer and blend eye shadows to blur any harsh lines.	https://www.purcosmetics.com/airbrush-blending-crease-brush?utm_source=google_shopping	https://www.purcosmetics.com/media/catalog/product/b/l/blending-crease-brush_1.jpg	 	18.00 USD	 	 	in stock	0.03 lb	Pur Cosmetics	951679070	new	Pur Category > Makeup > Brushes & Tools,Pur Category > Makeup > Shop All,Pur Category > Makeup	 	 	FALSE	 	847137018856	847137018856	951679070
951679040	 	Blurring Concealer Brush	Blend & Blur Designed to conceal blemishes and under-eye dark circles, this fluffy domed brush head will blend out lines and edges without smudging for maximum coverage.	https://www.purcosmetics.com/airbrush-blurring-concealer-brush?utm_source=google_shopping	https://www.purcosmetics.com/media/catalog/product/b/l/blurring-concealer-brush.jpg	 	16.00 USD	 	 	in stock	0.03 lb	Pur Cosmetics	951679040	new	Pur Category > Makeup > Brushes & Tools,Pur Category > Makeup > Shop All,Pur Category > Makeup	 	 	FALSE	 	847137018825	847137018825	951679040
951679090	 	Blurring Powder Brush	Blush, Bronze, & Brighten Tapered brush that distributes and blends blush, bronzer, and highlighting powders.	https://www.purcosmetics.com/airbrush-blurring-powder-brush?utm_source=google_shopping	https://www.purcosmetics.com/media/catalog/product/b/l/blurring-powder-brush-72dpi.jpg	 	22.00 USD	 	 	in stock	0.06 lb	Pur Cosmetics	951679090	new	Pur Category > Makeup > Brushes & Tools,Pur Category > Makeup > Shop All,Pur Category > Makeup	 	 	FALSE	 	847137018870	847137018870	951679090
951679050	 	Precision Crease Brush	Define the Eyes A soft, tapered brush that allows for accurate placement of powder or cream shadows into the crease of the eyelid.	https://www.purcosmetics.com/precision-crease-brush?utm_source=google_shopping	https://www.purcosmetics.com/media/catalog/product/p/r/precision-crease-brush.jpg	 	18.00 USD	 	 	in stock	0.03 lb	Pur Cosmetics	951679050	new	Pur Category > Makeup > Brushes & Tools,Pur Category > Makeup > Shop All,Pur Category > Makeup	 	 	FALSE	 	847137018832	847137018832	951679050
951679020	 	Perfecting Body Brush	Glow All Over Extra-large brush that provides buildable coverage. Perfect for applying bronzer or illuminators to the entire body for a flawless look.	https://www.purcosmetics.com/perfecting-body-brush?utm_source=google_shopping	https://www.purcosmetics.com/media/catalog/product/p/e/perfecting-body-brush.jpg	https://www.purcosmetics.com/media/catalog/product/p/o/position2_1200x1200_productpix_2.jpg	32.00 USD	20.00 USD	2018-12-14T00:00:00-05:00/2020-03-05T23:59:59-05:00	in stock	0.19 lb	Pur Cosmetics	951679020	new	Pur Category > Makeup > Brushes & Tools,Pur Category > Makeup > Shop All,Pur Category > Makeup	 	 	FALSE	 	847137018801	847137018801	951679020
951679080	 	Contour Blending Brush	Complexion Perfection	https://www.purcosmetics.com/contour-blending-brush?utm_source=google_shopping	https://www.purcosmetics.com/media/catalog/product/c/o/contour-blending-brush-72dpi.jpg	 	24.00 USD	 	 	in stock	0.09 lb	Pur Cosmetics	951679080	new	Pur Category > Makeup > Brushes & Tools,Pur Category > Makeup > Shop All,Pur Category > Makeup	 	 	FALSE	 	847137018863	847137018863	951679080
951680020	 	PÜR Pro Tools 5-Piece Brush Collection	Tools for Everyday Application These synthetic fiber brushes are perfect for everyday application of your favorite makeup products and deliver professional results. Composed of wavy and straight synthetic fiber (which means less fallout and more controlled application), each brush is designed for your specific needs. Set includes Liquid Foundation Brush, All Over Powder Brush, Precision Blush Brush, Airbrush Eye Shadow Brush, Precision Liner Brush, and a Brush Roll for portability.	https://www.purcosmetics.com/pur-pro-tools-5-piece-brush-collection?utm_source=google_shopping	https://www.purcosmetics.com/media/catalog/product/h/o/holiday-15-brush-kit-brush-bag-2.jpg	https://www.purcosmetics.com/media/catalog/product/h/o/holiday-15-brush-kit-brush.jpg,https://www.purcosmetics.com/media/catalog/product/h/o/holiday-15-brush-kit-bag.jpg	39.00 USD	29.00 USD	2018-07-24T00:00:00-04:00/2020-03-05T23:59:59-05:00	in stock	0.46 lb	Pur Cosmetics	951680020	new	Pur Category > Makeup > Brushes & Tools,Pur Category > Makeup > Kits,Pur Category > Makeup > Shop All	 	 	FALSE	 	847137018719	847137018719	951680020
851139110	 	Get a Little More Sunless Tanner	Glow All Year Get a brilliant dose of instant illumination with PUR's award-winning sunless self-tanner. Get a Little More imparts a gorgeous, naturally bronzed glow with an instant shimmering effect. Never orange or streaky, this lightweight formula gives your skin a flawlessly even touch of sun as it conditions with aloe vera and vitamin E.	https://www.purcosmetics.com/get-a-little-more-sunless-tanner?utm_source=google_shopping	https://www.purcosmetics.com/media/catalog/product/g/e/get-a-little-more-1000x1000.jpg	 	23.00 USD	10.00 USD	2018-02-16T00:00:00-05:00/2020-03-05T23:59:59-05:00	in stock	0.27 lb	Pur Cosmetics	851139110	new	Pur Category > Makeup > Shop All,Pur Category > Sale,Pur Category	 	 	FALSE	 	847137013981	847137013981	851139110
951470010	 	Eyedentity Luxe Firming Eye Cream	Renews & Smooths Firm and tighten the look of aging eyes and smooth away the appearance of fine lines, crow’s feet and more with this luxurious anti-aging formula. Combining intensive hydrators and antioxidants with the renewing power of lactic acid and a key peptide, Eyedentity fights visible signs of under eye aging while preventing future damage from appearing. The cooling, metal applicator allows you to massage the ingredients into the eye area for quicker absorption.	https://www.purcosmetics.com/eyedentity?utm_source=google_shopping	https://www.purcosmetics.com/media/catalog/product/e/y/eyedentity-cap-off.jpg	https://www.purcosmetics.com/media/catalog/product/e/y/eyedentity-swatch.jpg	39.00 USD	 	 	in stock	0.06 lb	Pur Cosmetics	951470010	new	Pur Category > Makeup > Eyes,Pur Category > Makeup > Shop All,Pur Category > Skincare > Shop All	 	 	FALSE	 	847137019044	847137019044	951470010
951838020	 	Sun-Kissed Glow Highlight Palette	Illuminate & Glow Strobing brings a new dimension to facial contouring for instant luminescence. Highlight and define with three coordinating shades to create a custom, lit-from-within look for any skin tone. The silky cream glides onto skin for buildable, streak-free coverage and transforms quickly to a powdery, transfer-resistant finish. A warm, glowing, youthful-looking complexion has never been so easy.	https://www.purcosmetics.com/sunkissed-glow?utm_source=google_shopping	https://www.purcosmetics.com/media/catalog/product/s/u/sun-kissed-glow-1000x1000.jpg	https://www.purcosmetics.com/media/catalog/product/s/t/strobe-sun-kissed-glow.jpg,https://www.purcosmetics.com/media/catalog/product/s/t/strobe-closed.jpg	34.00 USD	14.00 USD	2018-02-16T00:00:00-05:00/2020-03-05T23:59:59-05:00	in stock	0.25 lb	Pur Cosmetics	951838020	new	Pur Category > Makeup > Palettes,Pur Category > Makeup > Cheeks,Pur Category > Makeup > Shop All	 	 	FALSE	 	847137017842	847137017842	951838020
951470020	 	HydraGel Lift Under Eye Perfecting Primer	Cool & Smooth Achieve the perfect eye makeup application with this hydrating all-purpose, cooling eye primer that preps and smooths the skin for better wear throughout the day. Encapsulated Water Complex hydrates the lid and under eye for an instant brighter, firmer, lifted look while blurring imperfections and priming for concealer application.	https://www.purcosmetics.com/hydragel-lift?utm_source=google_shopping	https://www.purcosmetics.com/media/catalog/product/h/y/hydralift-gel-primer-cap-off.jpg	https://www.purcosmetics.com/media/catalog/product/h/y/hydralift-gel-primer-cap-on.jpg,https://www.purcosmetics.com/media/catalog/product/h/y/hydragel-lift-swatch-300dpiv2.jpg	26.00 USD	 	 	in stock	9.84 lb	Pur Cosmetics	951470020	new	Pur Category > Makeup > Eyes > Eye Primer,Pur Category > Makeup > Face > Primer,Pur Category > Makeup > Best Sellers	 	 	FALSE	 	847137007010	847137007010	951470020
951775020	 	Get Glowing Kit	Hydration gets maximized and vitality optimized with this collection that features PÜR’s age-defying Ceretin Complex, botanical ingredients and antioxidant-rich essentials that help tighten, smooth and hydrate. Includes: Correcting Primer Illuminate & Glow, Get A Lift Firming Facial Cream, Mineral Glow Bronzer and Volume Vixen Mascara with Keratin.	https://www.purcosmetics.com/get-glowing?utm_source=google_shopping	https://www.purcosmetics.com/media/catalog/product/g/e/get-glowing-products.jpg	https://www.purcosmetics.com/media/catalog/product/g/e/get-glowing-swatch.jpg	28.00 USD	 	 	out of stock	0.22 lb	Pur Cosmetics	951775020	new	Pur Category > Makeup > Kits,Pur Category > Makeup > Shop All,Pur Category > Makeup	 	 	FALSE	 	847137019020	847137019020	951775020
951245060	 	Contour Blending Sponge	PÜR's Contour Blending Sponge is latex-free and non-allergenic and can be used damp or dry. It’s washable, reusable and odor-free. The fine tip covers imperfections and is perfect for blending in small corners of the face, the flat shape blends the contour around the eyes and nose, and the rounded bottom can be used to roll on foundation and blend large areas of the face.	https://www.purcosmetics.com/contour-blending-sponge?utm_source=google_shopping	https://www.purcosmetics.com/media/catalog/product/c/a/cameo-contour-sponge.jpg	 	12.00 USD	 	 	in stock	2.32 lb	Pur Cosmetics	951245060	new	Pur Category > Makeup > Brushes & Tools,Pur Category > Makeup > Shop All,Pur Category > Makeup	 	 	FALSE	 	847137022839	847137022839	951245060
951742010	 	Au Naturel Eyeshadow Palette	Bare beauty gets a boost with these knockout natural shimmers and jewel tones for glowing days and smoldering nights. Vitamin E nourishes skin with antioxidant protection. These six highly pigmented shades will take you from day to night.	https://www.purcosmetics.com/au-naturel?utm_source=google_shopping	https://www.purcosmetics.com/media/catalog/product/a/u/au-natural-1000x1000.jpg	https://www.purcosmetics.com/media/catalog/product/a/u/aunaturel-swatches-72dpi.jpg,https://www.purcosmetics.com/media/catalog/product/s/a/sale_au-naturel_position3.jpg	29.00 USD	10.00 USD	2017-11-07T00:00:00-05:00/2020-03-05T23:59:59-05:00	out of stock	0.21 lb	Pur Cosmetics	951742010	new	Pur Category > Makeup > Eyes > Eyeshadow,Pur Category > Makeup > Eyes,Pur Category > Makeup > Palettes	 	 	FALSE	 	847137019051	847137019051	951742010
951743020	 	Love Your Selfie 2	No need to edit, this curated palette is filled with exclusive never-seen-before shades that will quickly take you from day to night. Never say: “Wait. I’m not ready!” again. Make sure you share your pics with us! #PURselfie This kit includes: A mini creamy lip pencil, mini high-shine lip gloss, one mini mascara, eight luxe eyeshadows, one universal highlighter, one bronzer and one baking powder to set your look for the perfect selfie.	https://www.purcosmetics.com/love-your-selfie-2?utm_source=google_shopping	https://www.purcosmetics.com/media/catalog/product/l/o/love-your-selfie-vs2-palette-opencpt-72dpi_1.jpg	https://www.purcosmetics.com/media/catalog/product/l/o/love-your-selfie-2-palette-kit-72dpi_1.jpg	42.00 USD	33.00 USD	2018-12-14T00:00:00-05:00/2020-03-05T23:59:59-05:00	in stock	0.82 lb	Pur Cosmetics	951743020	new	Pur Category > Makeup > Eyes > Eyeshadow,Pur Category > Makeup > Eyes,Pur Category > Makeup > Kits	 	 	FALSE	 	847137021320	847137021320	951743020
11803	 	4-in-1 Pressed Mineral Makeup Foundation Mini	Makeup, meet skincare. Our 4-in-1 Pressed Mineral Powder Foundation gives you the flawless mineral coverage you expect from PÜR Cosmetics with groundbreaking skincare ingredients built into our award-winning formula. Our powder foundation is adored worldwide for its lightweight feel and no-mess, no-stress application. This all-in-one foundation, concealer, powder and SPF 15 has been clinically proven to correct, prevent and interrupt your biggest skin concerns – even after the makeup comes off! That's pretty smart beauty.	https://www.purcosmetics.com/4-in-1-pressed-foundation-mini?utm_source=google_shopping	https://www.purcosmetics.com/media/catalog/product/0/0/00_4in1-mini-goldmedium-1000x1000.jpg	https://www.purcosmetics.com/media/catalog/product/4/i/4in1minifoundation_porcelain_1_1.jpg,https://www.purcosmetics.com/media/catalog/product/4/i/4in1minifoundation_light_2_1.jpg,https://www.purcosmetics.com/media/catalog/product/4/i/4in1minifoundation_blushmed_1_1.jpg,https://www.purcosmetics.com/media/catalog/product/4/i/4in1minifoundation_lighttan_1.jpg,https://www.purcosmetics.com/media/catalog/product/4/i/4in1minifoundation_tan_1_1.jpg,https://www.purcosmetics.com/media/catalog/product/4/i/4in1minifoundation_meddark_1.jpg,https://www.purcosmetics.com/media/catalog/product/4/i/4in1minifoundation_goldendark_1_1.jpg,https://www.purcosmetics.com/media/catalog/product/4/-/4-in-1-pressed-mineral-makeup-golden-dark-swatch_1.jpg,https://www.purcosmetics.com/media/catalog/product/4/-/4-in-1-pressed-mineral-makeup-light-swatch_1_1.jpg	15.00 USD	 	 	in stock	0.06 lb	Pur Cosmetics	11803	new	Pur Category > Collections > Travel Size,Pur Category > Makeup > Minis,Pur Category	 	 	FALSE	 	 	 	11803
851226020	11803	4-in-1 Pressed Mineral Makeup Foundation Mini in Light	Makeup, meet skincare. Our 4-in-1 Pressed Mineral Powder Foundation gives you the flawless mineral coverage you expect from PÜR with groundbreaking skincare ingredients built into our award-winning formula. Our powder foundation is adored worldwide for its lightweight feel and no-mess, no-stress application. This all-in-one foundation, concealer, powder and SPF 15 has been clinically proven to correct, prevent and interrupt your biggest skin concerns – even after the makeup comes off! That's pretty smart beauty.	https://www.purcosmetics.com/4-in-1-pressed-foundation-mini?utm_source=google_shopping	https://www.purcosmetics.com/media/catalog/product/4/i/4in1minifoundation_light_2_2.jpg	https://www.purcosmetics.com/media/catalog/product/4/-/4-in-1-pressed-mineral-makeup-light-swatch-small_1.jpg	15.00 USD	 	 	out of stock	0.10 lb	Pur Cosmetics	851226020	new	Pur Category > Collections > Travel Size,Pur Category > Makeup > Minis,Pur Category	 	 	FALSE	 	 	 	851226020
851226030	11803	4-in-1 Pressed Mineral Makeup Foundation Mini in Blush Medium	Makeup, meet skincare. Our 4-in-1 Pressed Mineral Powder Foundation gives you the flawless mineral coverage you expect from PÜR with groundbreaking skincare ingredients built into our award-winning formula. Our powder foundation is adored worldwide for its lightweight feel and no-mess, no-stress application. This all-in-one foundation, concealer, powder and SPF 15 has been clinically proven to correct, prevent and interrupt your biggest skin concerns – even after the makeup comes off! That's pretty smart beauty.	https://www.purcosmetics.com/4-in-1-pressed-foundation-mini?utm_source=google_shopping	https://www.purcosmetics.com/media/catalog/product/4/i/4in1minifoundation_blushmed_1_2.jpg	https://www.purcosmetics.com/media/catalog/product/4/-/4-in-1-pressed-mineral-makeup-blush-medium-swatch_2.jpg	15.00 USD	 	 	in stock	0.06 lb	Pur Cosmetics	851226030	new	Pur Category > Collections > Travel Size,Pur Category > Makeup > Minis,Pur Category	 	 	FALSE	 	847137014957	847137014957	851226030
851226040	11803	4-in-1 Pressed Mineral Makeup Foundation Mini in Golden Medium	Makeup, meet skincare. Our 4-in-1 Pressed Mineral Powder Foundation gives you the flawless mineral coverage you expect from PÜR with groundbreaking skincare ingredients built into our award-winning formula. Our powder foundation is adored worldwide for its lightweight feel and no-mess, no-stress application. This all-in-one foundation, concealer, powder and SPF 15 has been clinically proven to correct, prevent and interrupt your biggest skin concerns – even after the makeup comes off! That's pretty smart beauty.	https://www.purcosmetics.com/4-in-1-pressed-foundation-mini?utm_source=google_shopping	https://www.purcosmetics.com/media/catalog/product/4/i/4in1minifoundation_goldenmed_1_2.jpg	https://www.purcosmetics.com/media/catalog/product/4/-/4-in-1-pressed-mineral-makeup-golden-medium-swatch_2.jpg	15.00 USD	 	 	in stock	0.06 lb	Pur Cosmetics	851226040	new	Pur Category > Collections > Travel Size,Pur Category > Makeup > Minis,Pur Category	 	 	FALSE	 	847137014964	847137014964	851226040
851226060	11803	4-in-1 Pressed Mineral Makeup Foundation Mini in Tan	Makeup, meet skincare. Our 4-in-1 Pressed Mineral Powder Foundation gives you the flawless mineral coverage you expect from PÜR with groundbreaking skincare ingredients built into our award-winning formula. Our powder foundation is adored worldwide for its lightweight feel and no-mess, no-stress application. This all-in-one foundation, concealer, powder and SPF 15 has been clinically proven to correct, prevent and interrupt your biggest skin concerns – even after the makeup comes off! That's pretty smart beauty.	https://www.purcosmetics.com/4-in-1-pressed-foundation-mini?utm_source=google_shopping	https://www.purcosmetics.com/media/catalog/product/4/i/4in1minifoundation_tan_1_2.jpg	https://www.purcosmetics.com/media/catalog/product/4/-/4-in-1-pressed-mineral-makeup-tan-swatch_2.jpg	15.00 USD	 	 	in stock	0.06 lb	Pur Cosmetics	851226060	new	Pur Category > Collections > Travel Size,Pur Category > Makeup > Minis,Pur Category	 	 	FALSE	 	847137014988	847137014988	851226060
851226080	11803	4-in-1 Pressed Mineral Makeup Foundation Mini in Golden Dark	Makeup, meet skincare. Our 4-in-1 Pressed Mineral Powder Foundation gives you the flawless mineral coverage you expect from PÜR with groundbreaking skincare ingredients built into our award-winning formula. Our powder foundation is adored worldwide for its lightweight feel and no-mess, no-stress application. This all-in-one foundation, concealer, powder and SPF 15 has been clinically proven to correct, prevent and interrupt your biggest skin concerns – even after the makeup comes off! That's pretty smart beauty.	https://www.purcosmetics.com/4-in-1-pressed-foundation-mini?utm_source=google_shopping	https://www.purcosmetics.com/media/catalog/product/4/i/4in1minifoundation_goldendark_1_2.jpg	https://www.purcosmetics.com/media/catalog/product/4/-/4-in-1-pressed-mineral-makeup-golden-dark-swatch_2.jpg	15.00 USD	 	 	in stock	0.06 lb	Pur Cosmetics	851226080	new	Pur Category > Collections > Travel Size,Pur Category > Makeup > Minis,Pur Category	 	 	FALSE	 	847137015008	847137015008	851226080
851226050	11803	4-in-1 Pressed Mineral Makeup Foundation Mini in Light Tan	Makeup, meet skincare. Our 4-in-1 Pressed Mineral Powder Foundation gives you the flawless mineral coverage you expect from PÜR with groundbreaking skincare ingredients built into our award-winning formula. Our powder foundation is adored worldwide for its lightweight feel and no-mess, no-stress application. This all-in-one foundation, concealer, powder and SPF 15 has been clinically proven to correct, prevent and interrupt your biggest skin concerns – even after the makeup comes off! That's pretty smart beauty.	https://www.purcosmetics.com/4-in-1-pressed-foundation-mini?utm_source=google_shopping	https://www.purcosmetics.com/media/catalog/product/4/i/4in1minifoundation_lighttan_2.jpg	https://www.purcosmetics.com/media/catalog/product/4/-/4-in-1-pressed-mineral-makeup-light-tan-swatch_2.jpg	15.00 USD	 	 	in stock	0.06 lb	Pur Cosmetics	851226050	new	Pur Category > Collections > Travel Size,Pur Category > Makeup > Minis,Pur Category	 	 	FALSE	 	847137014971	847137014971	851226050
851226010	 	4-in-1 Pressed Mineral Makeup Foundation Mini in Porcelain	Makeup, meet skincare. Our 4-in-1 Pressed Mineral Powder Foundation gives you the flawless mineral coverage you expect from PÜR with groundbreaking skincare ingredients built into our award-winning formula. Our powder foundation is adored worldwide for its lightweight feel and no-mess, no-stress application. This all-in-one foundation, concealer, powder and SPF 15 has been clinically proven to correct, prevent and interrupt your biggest skin concerns – even after the makeup comes off! That's pretty smart beauty.	https://www.purcosmetics.com/4-in-1-pressed-foundation-mini-porcelain?utm_source=google_shopping	https://www.purcosmetics.com/media/catalog/product/4/i/4in1minifoundation_porcelain_1_2.jpg	https://www.purcosmetics.com/media/catalog/product/4/-/4-in-1-pressed-mineral-makeup-porcelain-swatch-2_2.jpg	15.00 USD	 	 	in stock	0.06 lb	Pur Cosmetics	851226010	new	Pur Category > Makeup > Minis,Pur Category	 	 	FALSE	 	847137014933	847137014933	851226010
851226070	 	4-in-1 Pressed Mineral Makeup Foundation Mini in Medium Dark	Makeup, meet skincare. Our 4-in-1 Pressed Mineral Powder Foundation gives you the flawless mineral coverage you expect from PÜR with groundbreaking skincare ingredients built into our award-winning formula. Our powder foundation is adored worldwide for its lightweight feel and no-mess, no-stress application. This all-in-one foundation, concealer, powder and SPF 15 has been clinically proven to correct, prevent and interrupt your biggest skin concerns – even after the makeup comes off! That's pretty smart beauty.	https://www.purcosmetics.com/4-in-1-pressed-foundation-mini-medium-dark?utm_source=google_shopping	https://www.purcosmetics.com/media/catalog/product/4/i/4in1minifoundation_meddark_2.jpg	https://www.purcosmetics.com/media/catalog/product/4/-/4-in-1-pressed-mineral-makeup-medium-dark-swatch_2.jpg	15.00 USD	 	 	in stock	0.06 lb	Pur Cosmetics	851226070	new	Pur Category > Makeup > Minis,Pur Category	 	 	FALSE	 	847137014995	847137014995	851226070
951676040	 	Bling Chisel Brush	Over 10 Million Compacts soldPÜR The Complexion Authority™ is celebrating over 10 million compacts sold with its Limited-Edition 4-in-1 Pressed Mineral Makeup and Chisel Brush. This spectacular jewel compact contains the iconic, no mess, good-for-your-skin foundation that started a revolution. Get unbeatable coverage that’s cruelty free from start to flawless finish. Our 4-in-1 Pressed Mineral Powder Foundation gives you the flawless mineral coverage you expect from PÜR with groundbreaking skincare ingredients built into our award-winning formula. Our powder foundation is adored worldwide for its lightweight feel and no-mess, no-stress application. This all-in-one foundation, concealer, powder and SPF 15 has been clinically proven to correct, prevent and interrupt your biggest skin concerns – even after the makeup comes off! That's pretty smart beauty.	https://www.purcosmetics.com/10th-anniversary-chisel-brush?utm_source=google_shopping	https://www.purcosmetics.com/media/catalog/product/b/l/blingchiselbrush-72dpi.jpg	https://www.purcosmetics.com/media/catalog/product/a/n/anniversarychiselbrush.jpg	25.00 USD	20.00 USD	2018-12-14T00:00:00-05:00/2020-03-05T23:59:59-05:00	in stock	0.09 lb	Pur Cosmetics	951676040	new	Pur Category > Makeup > Shop All,Pur Category > Makeup > Brushes & Tools,Pur Category > Sale	 	 	FALSE	 	847137023577	847137023577	951676040
11804	 	Bling 4-in-1 Pressed Mineral Makeup Foundation with Skincare	Over 10 Million Compacts soldPÜR The Complexion Authority™ is celebrating over 10 million compacts sold with its Limited-Edition 4-in-1 Pressed Mineral Makeup and Chisel Brush. This spectacular jewel compact contains the iconic, no mess, good-for-your-skin foundation that started a revolution. Get unbeatable coverage that’s cruelty free from start to flawless finish. Our 4-in-1 Pressed Mineral Powder Foundation gives you the flawless mineral coverage you expect from PÜR with groundbreaking skincare ingredients built into our award-winning formula. Our powder foundation is adored worldwide for its lightweight feel and no-mess, no-stress application. This all-in-one foundation, concealer, powder and SPF 15 has been clinically proven to correct, prevent and interrupt your biggest skin concerns – even after the makeup comes off! That's pretty smart beauty.	https://www.purcosmetics.com/10th-anniversary-4-in-1-pressed-mineral-makeup-foundation-with-skincare-ingredients?utm_source=google_shopping	https://www.purcosmetics.com/media/catalog/product/1/0/10-anniversary-4in1-blushmedium.jpg	https://www.purcosmetics.com/media/catalog/product/4/-/4-in-1-pressed-mineral-makeup-porcelain-open-recovered.jpg,https://www.purcosmetics.com/media/catalog/product/4/-/4-in-1-pressed-mineral-makeup-light-tan-open-recovered.jpg,https://www.purcosmetics.com/media/catalog/product/4/-/4-in-1-pressed-mineral-makeup-light-open-recovered.jpg,https://www.purcosmetics.com/media/catalog/product/4/-/4-in-1-pressed-mineral-makeup-golden-dark-open-recovered.jpg,https://www.purcosmetics.com/media/catalog/product/4/-/4-in-1-pressed-mineral-makeup-blush-medium-open-recovered.jpg,https://www.purcosmetics.com/media/catalog/product/4/-/4-in-1-pressed-mineral-makeup-golden-medium-open-recovered.jpg,https://www.purcosmetics.com/media/catalog/product/a/n/anniversarycompact-4in1-closed-angled-72dpi_13.jpg,https://www.purcosmetics.com/media/catalog/product/a/n/anniversarycompact-4in1-closed-angled-72dpi_17.jpg,https://www.purcosmetics.com/media/catalog/product/a/n/anniversarycompact-4in1-closed-angled-72dpi_14.jpg	34.00 USD	27.00 USD	2018-01-23T00:00:00-05:00/2020-03-05T23:59:59-05:00	in stock	 	Pur Cosmetics	11804	new	Pur Category > Makeup > Face,Pur Category > Sale,Pur Category	 	 	FALSE	 	 	 	11804
951455050	 	Triple Threat Slimline Mascara	Ready for a mascara that does it all? Triple Threat provides extreme length, curl and volume. The innovative brush grips both top and bottom lashes at their base and effortlessly combs through them for precise application and ultimate definition while the super formula conditions lashes and helps prevent premature fallout.	https://www.purcosmetics.com/triple-threat-slimline-mascara?utm_source=google_shopping	https://www.purcosmetics.com/media/catalog/product/t/r/triplethreatmascara-capofftoside-72dpi_1.jpg	https://www.purcosmetics.com/media/catalog/product/t/r/triple-threat-mascara-1200x1200.jpg,https://www.purcosmetics.com/media/catalog/product/t/r/triple-threat-mascara-1200x1200_1.jpg,https://www.purcosmetics.com/media/catalog/product/t/r/triplethreatmascara-capon-72dpi_1.jpg,https://www.purcosmetics.com/media/catalog/product/t/r/triple-threat-mascara--swatch-72dpi_1.jpg	22.00 USD	 	 	in stock	3.52 lb	Pur Cosmetics	951455050	new	Pur Category > Makeup > Eyes > Mascara,Pur Category > Makeup > Eyes,Pur Category > Makeup > Shop All	 	 	FALSE	 	847137021474	847137021474	951455050
851181020	 	Correcting Primer Hydrate & Balance Mini	Mattify & Moisturize Finally, there's a foundation primer for irritable, breakout-prone skin! Hydrate & Balance is an oil-free, silicone-free primer that helps provide 72 hours of deep hydration to the skin while providing a mattified makeup look free of the appearance of blemishes.	https://www.purcosmetics.com/color-correcting-primer-lavender-mini?utm_source=google_shopping	https://www.purcosmetics.com/media/catalog/product/p/r/primer-hydrate---blue.jpg	https://www.purcosmetics.com/media/catalog/product/c/o/color-correcting-primer-hydrate-and-balance-swatch_1.jpg	15.00 USD	 	 	in stock	0.03 lb	Pur Cosmetics	851181020	new	Pur Category > Collections > Travel Size,Pur Category > Makeup > Minis,Pur Category	 	 	FALSE	 	 	 	851181020
851154130	 	Correcting Primer Illuminate & Glow Mini	A Stroke of Brilliance Illuminate & Glow instantly adds a dose of brilliance to dull, tired and stressed-looking skin and also helps to minimize the appearance of pores, lines, wrinkles and imperfections.	https://www.purcosmetics.com/color-correcting-primer-illuminate-glow-mini?utm_source=google_shopping	https://www.purcosmetics.com/media/catalog/product/p/r/primer-glow.jpg	https://www.purcosmetics.com/media/catalog/product/c/o/color-correcting-primer-illuminate-and-glow-swatch_1.jpg	15.00 USD	 	 	in stock	0.03 lb	Pur Cosmetics	851154130	new	Pur Category > Makeup > Minis,Pur Category > Collections > Travel Size	 	 	FALSE	 	847137017873	847137017873	851154130
851113030	 	Miracle Mist Hydrating Spray Mini	70 Good Reasons Miracle Mist hydrating face spray instantly moisturizes dry, tired and stressed skin with more than 70 essential vitamins, minerals, antioxidants and amino acids. A favorite among professional makeup artists, this super-hydrating skin quencher also works as a setting spray and helps set mineral makeup for long-lasting perfection.	https://www.purcosmetics.com/miracle-mist-hydrating-spray-mini?utm_source=google_shopping	https://www.purcosmetics.com/media/catalog/product/m/i/miracle-mist_2.jpg	https://www.purcosmetics.com/media/catalog/product/m/e/melt-away--swatch-72dpi_1.jpg	15.00 USD	 	 	in stock	0.11 lb	Pur Cosmetics	851113030	new	Pur Category > Collections > Travel Size,Pur Category > Makeup > Minis,Pur Category	 	 	FALSE	 	 	 	851113030
951745030	 	Transformation Putty Eye & Cheek Palette	Alter your daily makeup routine with Transformation, PÜR’s revolutionary, sculpting eye shadow and cheek palette. The putty-to-powder eye shadow and cheek shades allow for instant color payoff and adheres to the eye lid or cheek like a second skin. Made with Moroccan Lava Clay and our proprietary skin care, Transformation helps to improve the appearance of the skin with each use. 5 Eye Shadow Shades: Original, Alter, Re-werk, Metamorphosis, and Bleeding Edge 2 Cheek Shades: Tailor Made (Bronzer) and Brand New (Blush)	https://www.purcosmetics.com/transformation-scultping-palette?utm_source=google_shopping	https://www.purcosmetics.com/media/catalog/product/t/r/transformation-eye-putty-1000x1000.jpg	https://www.purcosmetics.com/media/catalog/product/t/r/transformation-palette-closed-72dpi.jpg,https://www.purcosmetics.com/media/catalog/product/s/a/sale_transformation_hover.jpg	32.00 USD	16.00 USD	2018-02-16T00:00:00-05:00/2020-03-05T23:59:59-05:00	in stock	0.33 lb	Pur Cosmetics	951745030	new	Pur Category > Makeup > Eyes > Eyeshadow,Pur Category > Makeup > Eyes,Pur Category > Makeup > Palettes	 	 	FALSE	 	847137023515	847137023515	951745030
951791030	 	Mascara Trifecta Kit	Try all three of our fan-favorite mascara formulas! Each mascara comes in a deluxe-size which makes ensuring your lashes always look their best easier than ever. Included: • For Volume: Big Look Mascara With Argan Oil • For Length: Triple Threat Slimline Mascara • For age-defying lashes: Fully Charged Magnetic Mascara Powered By Magnetic Technology	https://www.purcosmetics.com/mascara-trifecta?utm_source=google_shopping	https://www.purcosmetics.com/media/catalog/product/m/a/mascara-trifecta-holiday-16-72dpi.jpg	 	19.00 USD	 	 	in stock	0.14 lb	Pur Cosmetics	951791030	new	Pur Category > Makeup > Eyes,Pur Category > Makeup > Kits,Pur Category > Makeup > Shop All	 	 	FALSE	 	847137023614	847137023614	951791030
951187010	 	Joystick Exfoliating Deep Cleanser	Get a smoother, brighter and healthier-looking complexion with this exfoliating deep-pore cleansing stick. This all-in-one cleanser, exfoliator and toner foams on contact to instantly draw out dirt, oil and impurities with charcoal and Moroccan Lava Clay. Suitable for all skin types, but specifically formulated for congested, acne-prone skin.	https://www.purcosmetics.com/joystick?utm_source=google_shopping	https://www.purcosmetics.com/media/catalog/product/j/o/joystick-capoff-72dpi.jpg	https://www.purcosmetics.com/media/catalog/product/i/m/img_4153.png,https://www.purcosmetics.com/media/catalog/product/j/o/joystick-capon-72dpi.jpg,https://www.purcosmetics.com/media/catalog/product/j/o/joystick-swatch-72dpi.jpg	26.00 USD	 	 	out of stock	8.50 lb	Pur Cosmetics	951187010	new	Pur Category > Skincare > Best Sellers,Pur Category > Skincare > Cleansers,Pur Category > Skincare > Masks	 	 	FALSE	 	847137023522	847137023522	951187010
951790180	 	Revolution Mini Eyeshadow Palette	Shake up your makeup collection with Revolution, PÜR’s mini eyeshadow collection that is sure to inspire great new eye shadow looks. Fully Charged Mascara is included to amp up your lashes. • 5 full-size eyeshadows • 1 mini Fully Charged Mascara	https://www.purcosmetics.com/revolution?utm_source=google_shopping	https://www.purcosmetics.com/media/catalog/product/r/e/revolution-palette-1000x1000.jpg	https://www.purcosmetics.com/media/catalog/product/s/a/sale_revolution_hover_1.jpg,https://www.purcosmetics.com/media/catalog/product/s/a/sale_revolution_hover.jpg,https://www.purcosmetics.com/media/catalog/product/r/e/revolution-closedcpt-72dpi.jpg	15.00 USD	12.00 USD	2017-10-30T00:00:00-04:00/2020-03-05T23:59:59-05:00	in stock	0.18 lb	Pur Cosmetics	951790180	new	Pur Category > Makeup > Eyes > Eyeshadow,Pur Category > Makeup > Eyes,Pur Category > Makeup > Kits	 	 	FALSE	 	847137023553	847137023553	951790180
851183020	 	Georgia Peach Sweet Tea Sugar Body Scrub	What it is: Gently polish your skin to perfection with this luxurious Georgia Peach Sweet Tea scented sugar scrub from Pur Minerals. Who it is for: This product is ideal for everyone. What it does: Infused with conditioning Georgia peach and sweet tea, this sensually indulgent total-body formula helps nourish a radiant glow while sugar grains help smooth skin for an all-around softer feel. Apply all over body in circular motions in shower or bath.	https://www.purcosmetics.com/georgia-peach-sweet-tea-sugar-body-scrub?utm_source=google_shopping	https://www.purcosmetics.com/media/catalog/product/g/a/ga-peach-cleanser-1000x1000.jpg	https://www.purcosmetics.com/media/catalog/product/s/a/sale_georgia-peach_hover.jpg	29.00 USD	12.00 USD	2018-02-16T00:00:00-05:00/2020-03-05T23:59:59-05:00	in stock	1.49 lb	Pur Cosmetics	851183020	new	Pur Category > Makeup > Shop All,Pur Category > Sale,Pur Category	 	 	FALSE	 	847137013974	847137013974	851183020
951791020	 	Royalty 5-Piece Eye Polish Collection	Are you Royalty? These eye-popping liquid eye shadows will be the perfect addition to your throne. The pigmented metallic polish can be used alone or as a primer for noble, crease-resistant eye looks. Designed to glide on with professional precision with the assistance of the included silicone applicator, the collection includes five supreme eye shadows with true staying power.	https://www.purcosmetics.com/royalty-5-piece-eye-polish?utm_source=google_shopping	https://www.purcosmetics.com/media/catalog/product/r/o/royalty-angel-kit-72dpiv1_1.jpg	https://www.purcosmetics.com/media/catalog/product/r/o/royalty-angel-kit-fc-72dpi.jpg,https://www.purcosmetics.com/media/catalog/product/r/o/royalty-angel-kit-swatches-72dpi_1.jpg	42.00 USD	 	 	in stock	0.18 lb	Pur Cosmetics	951791020	new	Pur Category > Makeup > Eyes > Eyeshadow,Pur Category	 	 	FALSE	 	847137023591	847137023591	951791020
851153020	 	Correcting Primer Redness Reducer Mini	Bye Bye Redness Redness Reducer offsets the look of irritation with its green hue while instantly reducing the appearance of pores and brightening the complexion. The effect is a uniform skin tone and a silky smooth finish.	https://www.purcosmetics.com/correcting-primer-redness-reducer-mini?utm_source=google_shopping	https://www.purcosmetics.com/media/catalog/product/p/r/primer-redness.jpg	https://www.purcosmetics.com/media/catalog/product/c/o/color-correcting-primer-rednessreducer-swatch-72dpi.jpg	15.00 USD	 	 	in stock	0.03 lb	Pur Cosmetics	851153020	new	Pur Category > Collections > Travel Size,Pur Category > Makeup > Minis,Pur Category	 	 	FALSE	 	 	 	851153020
851177030	 	Soak It Up Moisturizer Mini	Dry No More Bye, bye dry skin. Meet the ultimate thirst quencher for a healthier-looking complexion. Soak It Up delivers a mega-dose of oil-free hydration for a visibly softer, smoother look and more comfortable feel. This decadent, dewy cream provides both immediate relief from dryness and long-term moisture loss prevention to keep your skin looking its radiant best.	https://www.purcosmetics.com/soak-it-up-moisturizer-mini?utm_source=google_shopping	https://www.purcosmetics.com/media/catalog/product/s/o/soak-it-up_1.jpg	https://www.purcosmetics.com/media/catalog/product/s/o/soak-it-up--swatch-72dpi.jpg	15.00 USD	 	 	in stock	0.04 lb	Pur Cosmetics	851177030	new	Pur Category > Collections > Travel Size,Pur Category > Makeup > Minis,Pur Category	 	 	FALSE	 	 	 	851177030
851178030	 	Simplicity Cleanser Mini	Cleanser with a Gentler Touch Gentle enough for even the most sensitive skin, Simplicity effectively removes dirt, impurities and even makeup without irritation. Free of irritating sodium lauryl sulfate (SLS), this facial wash lushly cleanses, calms and conditions with botanical ingredients.	https://www.purcosmetics.com/simplicity-gentle-cleanser-mini?utm_source=google_shopping	https://www.purcosmetics.com/media/catalog/product/s/i/simplicity-mini.jpg	https://www.purcosmetics.com/media/catalog/product/s/i/simplicity--swatch-72dpi.jpg	15.00 USD	 	 	in stock	0.07 lb	Pur Cosmetics	851178030	new	Pur Category > Collections > Travel Size,Pur Category > Makeup > Minis,Pur Category	 	 	FALSE	 	847137023461	847137023461	851178030
851320040	 	Marble Powder Spice Bronzer Mini	The rich, earthy pigments of Universal Marble Powder in Spice add an all-over definition to the face by enhancing eyes, lips and cheeks while nourishing skin with shea butter and vitamin E. The mosaic blend of copper, cinnamon and pearl is ideal for women of colour.	https://www.purcosmetics.com/universal-marble-powder-spice-mini?utm_source=google_shopping	https://www.purcosmetics.com/media/catalog/product/s/p/spice-powder.jpg	 	15.00 USD	 	 	in stock	0.06 lb	Pur Cosmetics	851320040	new	Pur Category > Collections > Travel Size,Pur Category > Makeup > Minis,Pur Category	 	 	FALSE	 	847137004552	847137004552	851320040
851322010	 	Mineral Glow Bronzer Mini	Perfect A Golden GlowMineral Glow’s micronized mineral powder has rich, golden undertones to add a sun-kissed contour to your complexion. A staple for PÜR aficionados, use it as a quick fix bronzer for an all-year healthy glow.	https://www.purcosmetics.com/mineral-glow-mini?utm_source=google_shopping	https://www.purcosmetics.com/media/catalog/product/8/5/851322010_mini_mineralglow_72dpi.jpg	https://www.purcosmetics.com/media/catalog/product/m/i/mineral-glow-bronzer--swatch-72dpi.jpg	15.00 USD	 	 	in stock	0.06 lb	Pur Cosmetics	851322010	new	Pur Category > Collections > Travel Size,Pur Category > Makeup > Minis,Pur Category	 	 	FALSE	 	 	 	851322010
851448010	 	Impact+ Mascara Mini	Lengthen, Thicken, Curl Take your lashes to luscious new lengths with a nourishing mineral mascara with endless build and enviable intensity. Impact+ mascara evenly coats each lash in bold, budge-proof colour as well as volumizing vitamins and conditioners so lashes look naturally full and long and at their best.	https://www.purcosmetics.com/impact-mascara-mini?utm_source=google_shopping	https://www.purcosmetics.com/media/catalog/product/8/5/851448010_mini_impactmascara_72dpi.jpg	https://www.purcosmetics.com/media/catalog/product/i/m/impact-plus-mascara--swatch-72dpi_1.jpg	15.00 USD	 	 	in stock	0.03 lb	Pur Cosmetics	851448010	new	Pur Category > Collections > Travel Size,Pur Category > Makeup > Minis,Pur Category	 	 	FALSE	 	847137004729	847137004729	851448010
851454010	 	Volume Vixen Mascara Mini	Bigger, Badder Lashes There’s volume and then there’s false lash volume. Powered by Keratin, PÜR’s latest mascara innovation brings you false lash volume, separation, strength and length straight from the tube! This powerhouse mascara infuses lashes with nourishing hydration for a visibly thicker, fuller effect from root to tip while high-performance, ultra-light polymers deliver maximum build without clumping or weighing your lashes down. And with our advanced application wand with reservoirs, getting flawless full volume lashes is easy with just one application.	https://www.purcosmetics.com/volume-vixen-mini?utm_source=google_shopping	https://www.purcosmetics.com/media/catalog/product/v/o/volume-vixen-mini.jpg	https://www.purcosmetics.com/media/catalog/product/v/o/volume-vixen-mascara--swatch-72dpi.jpg	15.00 USD	 	 	in stock	0.00 lb	Pur Cosmetics	851454010	new	Pur Category > Collections > Travel Size,Pur Category > Makeup > Minis,Pur Category	 	 	FALSE	 	 	 	851454010
11805	 	Bare It All™ 4-in-1 Skin-Perfecting Foundation	AS SEEN IN... NEW BEAUTY • BUZZFEED   Dare to go bare. By combining high-quality skincare ingredients with complexion-perfecting pigments, this new 12-hour demi-matte foundation instantly perfects the look of skin while helping to correct problem areas over time. Its weightless and full coverage formula masks imperfections, pores and fine lines all day without cracking, separating or fading – fitting into your busy lifestyle by eliminating the need for touchups throughout the day. Formulated with agave extract, green tea, ginseng, B vitamins and PÜR’s proprietary Ceretin® Complex, this unique formula moisturizes and plumps the skin while stimulating the skin’s renewal process and fighting signs of aging. Helping you love the skin you’re in, it’s makeup that gives you the confidence to bare it all. 	https://www.purcosmetics.com/bare-it-all-foundation?utm_source=google_shopping	https://www.purcosmetics.com/media/catalog/product/b/a/bare-it-all_foundation_light-tan_72dpi_2.jpg	https://www.purcosmetics.com/media/catalog/product/b/a/bare-it-all_foundation_golden-dark_72dpi_2.jpg,https://www.purcosmetics.com/media/catalog/product/b/a/bare-it-all_foundation_golden-medium_72dpi_2.jpg,https://www.purcosmetics.com/media/catalog/product/b/a/bare-it-all_foundation_light_72dpi_2.jpg,https://www.purcosmetics.com/media/catalog/product/b/a/bare-it-all_foundation_medium-dark_72dpi_2.jpg,https://www.purcosmetics.com/media/catalog/product/b/a/bare-it-all_foundation_porcleain_72dpi_2.jpg,https://www.purcosmetics.com/media/catalog/product/b/a/bare-it-all_foundation_deep_72dpi_2.jpg,https://www.purcosmetics.com/media/catalog/product/b/a/bare-it-all_foundation_tan_72dpi_2.jpg,https://www.purcosmetics.com/media/catalog/product/b/a/bare-it-all_foundation_deeper_72dpi_2.jpg	39.00 USD	 	 	in stock	7.13 lb	Pur Cosmetics	11805	new	Pur Category > Makeup > Face > Foundation,Pur Category > Makeup > Best Sellers,Pur Category > Makeup > Face	 	 	FALSE	 	 	 	11805
951247010	11805	Bare It All™ 4-in-1 Skin-Perfecting Foundation in Porcelain	Skin is the sexiest part of the body and this high performance, 12-hour demi-matte foundation helps to cover imperfections and instantly perfect the skin while helping to correct problem areas over time so you can confidently bare it all. Designed for face and body and formulated with PÜR’s proprietary Energy Complex and Ceretin® Complex, this formula renews the look of your skin and goes the distance. It will not fade, quit or crumble under any condition you may face throughout your day.	https://www.purcosmetics.com/bare-it-all-foundation?utm_source=google_shopping	https://www.purcosmetics.com/media/catalog/product/b/a/bare-it-all_foundation_porcleain_72dpi_2_1.jpg	https://www.purcosmetics.com/media/catalog/product/b/a/bare-it-all_swatch_porcelain_72dpi_1_1.jpg	39.00 USD	 	 	in stock	7.13 lb	Pur Cosmetics	951247010	new	Pur Category > Makeup > Face > Foundation,Pur Category > Makeup > Best Sellers,Pur Category > Makeup > Face	 	 	FALSE	 	847137025212	847137025212	951247010
951247020	11805	Bare It All™ 4-in-1 Skin-Perfecting Foundation in Light	Skin is the sexiest part of the body and this high performance, 12-hour demi-matte foundation helps to cover imperfections and instantly perfect the skin while helping to correct problem areas over time so you can confidently bare it all. Designed for face and body and formulated with PÜR’s proprietary Energy Complex and Ceretin® Complex, this formula renews the look of your skin and goes the distance. It will not fade, quit or crumble under any condition you may face throughout your day.	https://www.purcosmetics.com/bare-it-all-foundation?utm_source=google_shopping	https://www.purcosmetics.com/media/catalog/product/b/a/bare-it-all_foundation_light_72dpi_2_1.jpg	https://www.purcosmetics.com/media/catalog/product/b/a/bare-it-all_swatch_light_72dpi_1_1.jpg,https://www.purcosmetics.com/media/catalog/product/n/i/nikki-light_1.jpg	39.00 USD	 	 	in stock	7.13 lb	Pur Cosmetics	951247020	new	Pur Category > Makeup > Face > Foundation,Pur Category > Makeup > Best Sellers,Pur Category > Makeup > Face	 	 	FALSE	 	847137025229	847137025229	951247020
951247030	11805	Bare It All™ 4-in-1 Skin-Perfecting Foundation in Blush Medium	Skin is the sexiest part of the body and this high performance, 12-hour demi-matte foundation helps to cover imperfections and instantly perfect the skin while helping to correct problem areas over time so you can confidently bare it all. Designed for face and body and formulated with PÜR’s proprietary Energy Complex and Ceretin® Complex, this formula renews the look of your skin and goes the distance. It will not fade, quit or crumble under any condition you may face throughout your day.	https://www.purcosmetics.com/bare-it-all-foundation?utm_source=google_shopping	https://www.purcosmetics.com/media/catalog/product/b/a/bare-it-all_foundation_blush-medium_72dpi_1_1.jpg	https://www.purcosmetics.com/media/catalog/product/b/a/bare-it-all_swatch_blushmedium_72dpi_1_1.jpg	39.00 USD	 	 	in stock	7.13 lb	Pur Cosmetics	951247030	new	Pur Category > Makeup > Face > Foundation,Pur Category > Makeup > Best Sellers,Pur Category > Makeup > Face	 	 	FALSE	 	847137025236	847137025236	951247030
951247040	11805	Bare It All™ 4-in-1 Skin-Perfecting Foundation in Golden Medium	Skin is the sexiest part of the body and this high performance, 12-hour demi-matte foundation helps to cover imperfections and instantly perfect the skin while helping to correct problem areas over time so you can confidently bare it all. Designed for face and body and formulated with PÜR’s proprietary Energy Complex and Ceretin® Complex, this formula renews the look of your skin and goes the distance. It will not fade, quit or crumble under any condition you may face throughout your day.	https://www.purcosmetics.com/bare-it-all-foundation?utm_source=google_shopping	https://www.purcosmetics.com/media/catalog/product/b/a/bare-it-all_foundation_golden-medium_72dpi_2_1.jpg	https://www.purcosmetics.com/media/catalog/product/b/a/bare-it-all_swatch_goldenmedium_72dpi_1_1.jpg	39.00 USD	 	 	in stock	7.13 lb	Pur Cosmetics	951247040	new	Pur Category > Makeup > Face > Foundation,Pur Category > Makeup > Best Sellers,Pur Category > Makeup > Face	 	 	FALSE	 	847137025243	847137025243	951247040
951247060	11805	Bare It All™ 4-in-1 Skin-Perfecting Foundation in Tan	Skin is the sexiest part of the body and this high performance, 12-hour demi-matte foundation helps to cover imperfections and instantly perfect the skin while helping to correct problem areas over time so you can confidently bare it all. Designed for face and body and formulated with PÜR’s proprietary Energy Complex and Ceretin® Complex, this formula renews the look of your skin and goes the distance. It will not fade, quit or crumble under any condition you may face throughout your day.	https://www.purcosmetics.com/bare-it-all-foundation?utm_source=google_shopping	https://www.purcosmetics.com/media/catalog/product/b/a/bare-it-all_foundation_tan_72dpi_2_1.jpg	https://www.purcosmetics.com/media/catalog/product/b/a/bare-it-all_swatch_tan_72dpi_1_1.jpg	39.00 USD	 	 	in stock	7.13 lb	Pur Cosmetics	951247060	new	Pur Category > Makeup > Face > Foundation,Pur Category > Makeup > Best Sellers,Pur Category > Makeup > Face	 	 	FALSE	 	847137025267	847137025267	951247060
951247070	11805	Bare It All™ 4-in-1 Skin-Perfecting Foundation in Medium Dark	Skin is the sexiest part of the body and this high performance, 12-hour demi-matte foundation helps to cover imperfections and instantly perfect the skin while helping to correct problem areas over time so you can confidently bare it all. Designed for face and body and formulated with PÜR’s proprietary Energy Complex and Ceretin® Complex, this formula renews the look of your skin and goes the distance. It will not fade, quit or crumble under any condition you may face throughout your day.	https://www.purcosmetics.com/bare-it-all-foundation?utm_source=google_shopping	https://www.purcosmetics.com/media/catalog/product/b/a/bare-it-all_foundation_medium-dark_72dpi_2_1.jpg	https://www.purcosmetics.com/media/catalog/product/b/a/bare-it-all_swatch_mediumdark_72dpi_1_1.jpg	39.00 USD	 	 	in stock	7.13 lb	Pur Cosmetics	951247070	new	Pur Category > Makeup > Face > Foundation,Pur Category > Makeup > Best Sellers,Pur Category > Makeup > Face	 	 	FALSE	 	847137025281	847137025281	951247070
951247080	11805	Bare It All™ 4-in-1 Skin-Perfecting Foundation in Golden Dark	Skin is the sexiest part of the body and this high performance, 12-hour demi-matte foundation helps to cover imperfections and instantly perfect the skin while helping to correct problem areas over time so you can confidently bare it all. Designed for face and body and formulated with PÜR’s proprietary Energy Complex and Ceretin® Complex, this formula renews the look of your skin and goes the distance. It will not fade, quit or crumble under any condition you may face throughout your day.	https://www.purcosmetics.com/bare-it-all-foundation?utm_source=google_shopping	https://www.purcosmetics.com/media/catalog/product/b/a/bare-it-all_foundation_golden-dark_72dpi_2_1.jpg	https://www.purcosmetics.com/media/catalog/product/b/a/bare-it-all_swatch_goldendark_72dpi_1_1.jpg	39.00 USD	 	 	in stock	7.13 lb	Pur Cosmetics	951247080	new	Pur Category > Makeup > Face > Foundation,Pur Category > Makeup > Best Sellers,Pur Category > Makeup > Face	 	 	FALSE	 	847137025298	847137025298	951247080
951247090	11805	Bare It All™ 4-in-1 Skin-Perfecting Foundation in Deep	Skin is the sexiest part of the body and this high performance, 12-hour demi-matte foundation helps to cover imperfections and instantly perfect the skin while helping to correct problem areas over time so you can confidently bare it all. Designed for face and body and formulated with PÜR’s proprietary Energy Complex and Ceretin® Complex, this formula renews the look of your skin and goes the distance. It will not fade, quit or crumble under any condition you may face throughout your day.	https://www.purcosmetics.com/bare-it-all-foundation?utm_source=google_shopping	https://www.purcosmetics.com/media/catalog/product/b/a/bare-it-all_foundation_deep_72dpi_2_1.jpg	https://www.purcosmetics.com/media/catalog/product/b/a/bare-it-all_swatch_deep_72dpi_1_1.jpg	39.00 USD	 	 	in stock	7.13 lb	Pur Cosmetics	951247090	new	Pur Category > Makeup > Face > Foundation,Pur Category > Makeup > Best Sellers,Pur Category > Makeup > Face	 	 	FALSE	 	847137025304	847137025304	951247090
951248010	11805	Bare It All™ 4-in-1 Skin-Perfecting Foundation in Deeper	Dare to go bare.Skin is the sexiest part of the body and this high performance, 12-hour demi-matte foundation helps to cover imperfections and instantly perfect the skin while helping to correct problem areas over time so you can confidently bare it all. Designed for face and body and formulated with PÜR’s proprietary Energy Complex and Ceretin® Complex, this formula renews the look of your skin and goes the distance. It will not fade, quit or crumble under any condition you may face throughout your day.	https://www.purcosmetics.com/bare-it-all-foundation?utm_source=google_shopping	https://www.purcosmetics.com/media/catalog/product/b/a/bare-it-all_foundation_deeper_72dpi_2_1.jpg	https://www.purcosmetics.com/media/catalog/product/b/a/bare-it-all_swatch_deeper_72dpi_1_1.jpg	39.00 USD	 	 	in stock	7.13 lb	Pur Cosmetics	951248010	new	Pur Category > Makeup > Face > Foundation,Pur Category > Makeup > Best Sellers,Pur Category > Makeup > Face	 	 	FALSE	 	847137025311	847137025311	951248010
11806	 	Chrome Glaze High-Shine Lip Gloss	This lightweight, highly pigmented lip color utilizes gel technology to coat lips in vivid color and intense shine. The chrome-like gloss provides pigment without traveling or fading.	https://www.purcosmetics.com/chrome-glaze-lip-gloss?utm_source=google_shopping	https://www.purcosmetics.com/media/catalog/product/c/h/chromeglaze_gloss_smartypants_capon_72dpi.jpg	https://www.purcosmetics.com/media/catalog/product/c/h/chromeglaze_gloss_squad_capon_72dpi.jpg,https://www.purcosmetics.com/media/catalog/product/c/h/chromeglaze_gloss_armcandy_capon_72dpi.jpg,https://www.purcosmetics.com/media/catalog/product/c/h/chromeglaze_gloss_diy_capon_72dpi.jpg,https://www.purcosmetics.com/media/catalog/product/c/h/chromeglaze_gloss_heartbreaker_capon_72dpi.jpg,https://www.purcosmetics.com/media/catalog/product/c/h/chromeglaze_gloss_rebel_capon_72dpi.jpg,https://www.purcosmetics.com/media/catalog/product/c/h/chromeglaze-gloss-swatch-armcandy_72dpi.jpg,https://www.purcosmetics.com/media/catalog/product/c/h/chromeglaze-gloss-swatch-diy_72dpi.jpg,https://www.purcosmetics.com/media/catalog/product/c/h/chromeglaze-gloss-swatch-heartbreaker_72dpi.jpg,https://www.purcosmetics.com/media/catalog/product/c/h/chromeglaze-gloss-swatch-rebel_72dpi.jpg	18.00 USD	 	 	in stock	0.04 lb	Pur Cosmetics	11806	new	Pur Category > Makeup > Lips,Pur Category > Makeup > Shop All,Pur Category > Makeup	 	 	FALSE	 	 	 	11806
951559030	11806	Chrome Glaze High-Shine Lip Gloss in Rebel	This lightweight, highly pigmented lip color utilizes gel technology to coat lips in vivid color and intense shine. The chrome-like gloss provides pigment without traveling or fading.	https://www.purcosmetics.com/chrome-glaze-lip-gloss?utm_source=google_shopping	https://www.purcosmetics.com/media/catalog/product/c/h/chromeglaze_gloss_rebel_capoff_72dpi.jpg	https://www.purcosmetics.com/media/catalog/product/c/h/chromeglaze-gloss-swatch-rebel_72dpi_1.jpg,https://www.purcosmetics.com/media/catalog/product/c/h/chromeglaze_gloss_rebel_capon_72dpi_1.jpg	18.00 USD	 	 	in stock	0.04 lb	Pur Cosmetics	951559030	new	Pur Category > Makeup > Lips,Pur Category > Makeup > Shop All,Pur Category > Makeup	 	 	FALSE	 	847137025045	847137025045	951559030
951559040	11806	Chrome Glaze High-Shine Lip Gloss in Smarty Pants	This lightweight, highly pigmented lip color utilizes gel technology to coat lips in vivid color and intense shine. The chrome-like gloss provides pigment without traveling or fading.	https://www.purcosmetics.com/chrome-glaze-lip-gloss?utm_source=google_shopping	https://www.purcosmetics.com/media/catalog/product/c/h/chromeglaze_gloss_smartypants_capoff_72dpi.jpg	https://www.purcosmetics.com/media/catalog/product/c/h/chromeglaze_gloss_smartypants_capon_72dpi_1.jpg,https://www.purcosmetics.com/media/catalog/product/c/h/chromeglaze-gloss-swatch-smartypants_72dpi_1.jpg	18.00 USD	 	 	in stock	0.04 lb	Pur Cosmetics	951559040	new	Pur Category > Makeup > Lips,Pur Category > Makeup > Shop All,Pur Category > Makeup	 	 	FALSE	 	847137025052	847137025052	951559040
951559050	11806	Chrome Glaze High-Shine Lip Gloss in Squad	Utilizing gel colour technology, lips are coated with vivid color for high-shine wear.	https://www.purcosmetics.com/chrome-glaze-lip-gloss?utm_source=google_shopping	https://www.purcosmetics.com/media/catalog/product/c/h/chromeglaze_gloss_squad_capoff_72dpi.jpg	https://www.purcosmetics.com/media/catalog/product/c/h/chromeglaze_gloss_squad_capon_72dpi_1.jpg,https://www.purcosmetics.com/media/catalog/product/c/h/chromeglaze-gloss-swatch-squad_72dpi_1.jpg	18.00 USD	 	 	out of stock	0.04 lb	Pur Cosmetics	951559050	new	Pur Category > Makeup > Lips,Pur Category > Makeup > Shop All,Pur Category > Makeup	 	 	FALSE	 	847137025069	847137025069	951559050
951559060	11806	Chrome Glaze High-Shine Lip Gloss in Heartbreaker	This lightweight, highly pigmented lip color utilizes gel technology to coat lips in vivid colour and intense shine. The chrome like gloss provides without traveling or fading.	https://www.purcosmetics.com/chrome-glaze-lip-gloss?utm_source=google_shopping	https://www.purcosmetics.com/media/catalog/product/c/h/chromeglaze_gloss_heartbreaker_capoff_72dpi.jpg	https://www.purcosmetics.com/media/catalog/product/c/h/chromeglaze-gloss-swatch-heartbreaker_72dpi_1.jpg,https://www.purcosmetics.com/media/catalog/product/c/h/chromeglaze_gloss_heartbreaker_capon_72dpi_1.jpg	18.00 USD	 	 	out of stock	0.04 lb	Pur Cosmetics	951559060	new	Pur Category > Makeup > Lips,Pur Category > Makeup > Shop All,Pur Category > Makeup	 	 	FALSE	 	847137025076	847137025076	951559060
951559070	11806	Chrome Glaze High-Shine Lip Gloss in Arm Candy	This lightweight, highly pigmented lip color utilizes gel technology to coat lips in vivid color and intense shine. The chrome-like gloss provides pigment without traveling or fading.	https://www.purcosmetics.com/chrome-glaze-lip-gloss?utm_source=google_shopping	https://www.purcosmetics.com/media/catalog/product/c/h/chromeglaze_gloss_armcandy_capoff_72dpi.jpg	https://www.purcosmetics.com/media/catalog/product/c/h/chromeglaze_gloss_armcandy_capon_72dpi_1.jpg	18.00 USD	 	 	out of stock	0.04 lb	Pur Cosmetics	951559070	new	Pur Category > Makeup > Lips,Pur Category > Makeup > Shop All,Pur Category > Makeup	 	 	FALSE	 	847137025083	847137025083	951559070
951559020	11806	Chrome Glaze High-Shine Lip Gloss in DIY	This lightweight, highly pigmented lip color utilizes gel technology to coat lips in vivid color and intense shine. The chrome-like gloss provides pigment without traveling or fading.	https://www.purcosmetics.com/chrome-glaze-lip-gloss?utm_source=google_shopping	https://www.purcosmetics.com/media/catalog/product/c/h/chromeglaze_gloss_diy_capoff_72dpi.jpg	https://www.purcosmetics.com/media/catalog/product/c/h/chromeglaze_gloss_diy_capon_72dpi_1.jpg	18.00 USD	 	 	in stock	0.04 lb	Pur Cosmetics	951559020	new	Pur Category > Makeup > Lips,Pur Category > Makeup > Shop All,Pur Category > Makeup	 	 	FALSE	 	847137025090	847137025090	951559020
951557070	 	No Filter Blurring Photography Primer	Moisturize, color balance, prime and illuminate the skin in one step. This unique primer with prismatic blurring micro-pearls helps to color correct while age-defying skin care ingredients nourishes the skin and a vitamin-rich Energy Complex with moisturizing agave and essential fatty acids prep the skin for makeup application. Loaded with essential oils like Coconut, Olive, and Shea a drop of this into your foundation will result in a dewy yet shine-free finish that boosts radiance and masks imperfections for a picture-perfect complexion.	https://www.purcosmetics.com/no-filter-primer?utm_source=google_shopping	https://www.purcosmetics.com/media/catalog/product/n/o/nofilter_capoff_72dpi.jpg	https://www.purcosmetics.com/media/catalog/product/p/u/pur_dominique_face_3-8_web.jpg,https://www.purcosmetics.com/media/catalog/product/n/o/nofilter_capon_72dpi.jpg,https://www.purcosmetics.com/media/catalog/product/n/o/no_filter_swatch_72dpi.jpg	33.00 USD	 	 	in stock	0.14 lb	Pur Cosmetics	951557070	new	Pur Category > Makeup > Face > Primer,Pur Category > Makeup > Face,Pur Category > Makeup > Shop All	 	 	FALSE	 	847137026561	847137026561	951557070
951656010	 	Skin Perfecting Foundation Brush	Makeup application just got a lot easier with PÜR’s Skin-Perfecting Foundation Brush. With its unique oval shape, dense bed of synthetic bristles and large grip handle that gives you plenty of control, you’ll achieve an airbrushed, full coverage effect that looks like second skin every time. Use it to flawlessly apply the new Bare It All 12-Hour 4-in-1 Skin-Perfecting Foundation or your favorite creams, powders and bronzers on the face and body.	https://www.purcosmetics.com/skin-perfecting-foundation-brush?utm_source=google_shopping	https://www.purcosmetics.com/media/catalog/product/s/k/skin-perfecting-body-brush_72dpi.jpg	 	28.00 USD	 	 	in stock	0.11 lb	Pur Cosmetics	951656010	new	Pur Category > Makeup > Brushes & Tools,Pur Category > Makeup > Shop All,Pur Category > Makeup	 	 	FALSE	 	847137027261	847137027261	951656010
951656040	 	Skin Perfecting Concealer Brush	A soft, synthetic fiber brush with grip handle that gives skin a smooth airbrush effect that looks like second skin. Can be used to apply concealer, highlighters or contouring products	https://www.purcosmetics.com/skin-perfecting-concealer-brush?utm_source=google_shopping	https://www.purcosmetics.com/media/catalog/product/s/k/skin-perfecting-concealer-brush-72dpi.jpg	 	22.00 USD	 	 	in stock	0.06 lb	Pur Cosmetics	951656040	new	Pur Category > Makeup > Brushes & Tools,Pur Category > Makeup > Shop All,Pur Category > Makeup	 	 	FALSE	 	847137027278	847137027278	951656040
951113120	 	Miracle Mist Hydrating Spray	Seventy Good Reasons Miracle Mist hydrating face spray instantly moisturizes dry, tired and stressed skin with more than 70 essential vitamins, minerals, antioxidants and amino acids. A favorite among professional makeup artists, this super-hydrating skin quencher also works as a setting spray and helps set mineral makeup for long-lasting perfection.	https://www.purcosmetics.com/miracle-mist-hydrating-spray?utm_source=google_shopping	https://www.purcosmetics.com/media/catalog/product/m/i/miracle-mist-capon-4floz-72dpi_2.jpg	 	18.00 USD	 	 	in stock	9.75 lb	Pur Cosmetics	951113120	new	Pur Category > Skincare > Best Sellers,Pur Category > Makeup > Shop All,Pur Category > Skincare > Shop All	 	 	FALSE	 	847137011376	847137011376	951113120
951157020	 	Get a Grip Endurance Eyeshadow Primer	No more fallout.With Get A Grip, eye shadow is locked in place with no creasing or fading throughout the day. The eye primer ensures a smooth application and enhanced color payoff with less product. This allows you to hold on to your eye shadow all day or all night.	https://www.purcosmetics.com/get-a-grip-eye-shadow-primer?utm_source=google_shopping	https://www.purcosmetics.com/media/catalog/product/g/e/get-a-grip_capon_72dpi_1.jpg	https://www.purcosmetics.com/media/catalog/product/g/e/get-a-grip-swatch_72dpi_1.jpg	20.00 USD	 	 	in stock	3.10 lb	Pur Cosmetics	951157020	new	Pur Category > Makeup > Eyes > Eye Primer,Pur Category > Makeup > Eyes,Pur Category > Makeup > Shop All	 	 	FALSE	 	847137021955	847137021955	951157020
951157070	 	Blue Agave Mask	Dermatologist Tested Give your skin an energizing boost with this ultra-refreshing blue agave mask. An Energy Complex of green tea, ginseng and Vitamin B helps stimulate the skin’s natural metabolism for the look of plumper, hydrated and refreshed skin. The cooling sensation and uplifting scent will leave your skin feeling totally revived.	https://www.purcosmetics.com/blue-agave-mask?utm_source=google_shopping	https://www.purcosmetics.com/media/catalog/product/b/l/blueagave-capon-2oz-1200x1200.jpg	https://www.purcosmetics.com/media/catalog/product/a/g/agave-mask-model-pull_off_2018_1200x1200_72dpi.jpg,https://www.purcosmetics.com/media/catalog/product/b/l/blue-agave-mask_swatch_72dpi.jpg	26.00 USD	 	 	in stock	13.43 lb	Pur Cosmetics	951157070	new	Pur Category > Skincare > Best Sellers,Pur Category > Skincare > Masks,Pur Category > Makeup > Shop All	 	 	FALSE	 	847137024819	847137024819	951157070
11807	 	On Point Lip Liner	Go outside the lines.Prime and line your pout with these lip perfecting liners. On Point glides on easily and locks lip color into place to prevent color from bleeding and feathering. The long-wear formula contains a plumping peptide that improves the appearance of lips for the look of a fuller, smoother pout.	https://www.purcosmetics.com/on-point-lip-liner?utm_source=google_shopping	https://www.purcosmetics.com/media/catalog/product/o/n/onpointlipliner_tutu_capoff_72dpi.jpg	https://www.purcosmetics.com/media/catalog/product/o/n/onpointlipliner_lowkey_capoff_72dpi.jpg,https://www.purcosmetics.com/media/catalog/product/o/n/onpointlipliner_lowkey_capon_72dpi.jpg,https://www.purcosmetics.com/media/catalog/product/o/n/onpointlipliner_lowkey_swatch_72dpi.jpg	18.00 USD	 	 	in stock	0.03 lb	Pur Cosmetics	11807	new	Pur Category > Makeup > Lips,Pur Category > Makeup > Shop All,Pur Category > Makeup	 	 	FALSE	 	 	 	11807
951557060	11807	On Point Lip Liner in Teddy	Prime and line your pout with these lip perfecting liners. On Point glides on easily and locks lip color into place to prevent color from bleeding and feathering. The long-wear formula contains a plumping peptide that improves the appearance of lips for the look of a fuller, smoother pout.	https://www.purcosmetics.com/on-point-lip-liner?utm_source=google_shopping	https://www.purcosmetics.com/media/catalog/product/o/n/onpointlipliner_teddy_capoff_72dpi_1.jpg	https://www.purcosmetics.com/media/catalog/product/o/n/onpointlipliner_teddy_capon_72dpi_1.jpg,https://www.purcosmetics.com/media/catalog/product/o/n/onpointlipliner_teddy_swatch_72dpi_1.jpg	18.00 USD	 	 	in stock	0.03 lb	Pur Cosmetics	951557060	new	Pur Category > Makeup > Lips,Pur Category > Makeup > Shop All,Pur Category > Makeup	 	 	FALSE	 	847137024536	847137024536	951557060
951557050	11807	On Point Lip Liner in Tutu	Go outside the lines.Prime and line your pout with these lip perfecting liners. On Point glides on easily and locks lip color into place to prevent color from bleeding and feathering. The long-wear formula contains a plumping peptide that improves the appearance of lips for the look of a fuller, smoother pout.	https://www.purcosmetics.com/on-point-lip-liner?utm_source=google_shopping	https://www.purcosmetics.com/media/catalog/product/o/n/onpointlipliner_tutu_capoff_72dpi_1.jpg	https://www.purcosmetics.com/media/catalog/product/o/n/onpointlipliner_tutu_swatch_72dpi_1.jpg,https://www.purcosmetics.com/media/catalog/product/o/n/onpointlipliner_tutu_capon_72dpi_1.jpg	18.00 USD	 	 	in stock	0.03 lb	Pur Cosmetics	951557050	new	Pur Category > Makeup > Lips,Pur Category > Makeup > Shop All,Pur Category > Makeup	 	 	FALSE	 	847137024529	847137024529	951557050
951557040	11807	On Point Lip Liner in Power Trip	Go outside the lines.Prime and line your pout with these lip perfecting liners. On Point glides on easily and locks lip color into place to prevent color from bleeding and feathering. The long-wear formula contains a plumping peptide that improves the appearance of lips for the look of a fuller, smoother pout.	https://www.purcosmetics.com/on-point-lip-liner?utm_source=google_shopping	https://www.purcosmetics.com/media/catalog/product/o/n/onpointlipliner_powertrip_capoff_72dpi_1.jpg	https://www.purcosmetics.com/media/catalog/product/o/n/onpointlipliner_powertrip_swatch_72dpi_1.jpg,https://www.purcosmetics.com/media/catalog/product/o/n/onpointlipliner_powertrip_capon_72dpi_1.jpg	18.00 USD	 	 	in stock	0.03 lb	Pur Cosmetics	951557040	new	Pur Category > Makeup > Lips,Pur Category > Makeup > Shop All,Pur Category > Makeup	 	 	FALSE	 	847137024512	847137024512	951557040
951557010	11807	On Point Lip Liner in See Thru	Go outside the lines.Prime and line your pout with these lip perfecting liners. On Point glides on easily and locks lip color into place to prevent color from bleeding and feathering. The long-wear formula contains a plumping peptide that improves the appearance of lips for the look of a fuller, smoother pout.	https://www.purcosmetics.com/on-point-lip-liner?utm_source=google_shopping	https://www.purcosmetics.com/media/catalog/product/o/n/onpointlipliner_seethru_capoff_72dpi_1.jpg	https://www.purcosmetics.com/media/catalog/product/o/n/onpointlipliner_seethru_capon_72dpi_1.jpg,https://www.purcosmetics.com/media/catalog/product/o/n/onpointlipliner_seethru_swatch_72dpi_1.jpg	18.00 USD	 	 	in stock	0.03 lb	Pur Cosmetics	951557010	new	Pur Category > Makeup > Lips,Pur Category > Makeup > Shop All,Pur Category > Makeup	 	 	FALSE	 	847137024482	847137024482	951557010
951557020	11807	On Point Lip Liner in Vamp	Go outside the lines.Prime and line your pout with these lip perfecting liners. On Point glides on easily and locks lip color into place to prevent color from bleeding and feathering. The long-wear formula contains a plumping peptide that improves the appearance of lips for the look of a fuller, smoother pout.	https://www.purcosmetics.com/on-point-lip-liner?utm_source=google_shopping	https://www.purcosmetics.com/media/catalog/product/o/n/onpointlipliner_vamp_capoff_72dpi_1.jpg	https://www.purcosmetics.com/media/catalog/product/o/n/onpointlipliner_vamp_swatch_72dpi_1.jpg,https://www.purcosmetics.com/media/catalog/product/o/n/onpointlipliner_vamp_capon_72dpi_1.jpg	18.00 USD	 	 	in stock	0.03 lb	Pur Cosmetics	951557020	new	Pur Category > Makeup > Lips,Pur Category > Makeup > Shop All,Pur Category > Makeup	 	 	FALSE	 	847137024499	847137024499	951557020
951557030	11807	On Point Lip Liner in Low Key	Go outside the lines.Prime and line your pout with these lip perfecting liners. On Point glides on easily and locks lip color into place to prevent color from bleeding and feathering. The long-wear formula contains a plumping peptide that improves the appearance of lips for the look of a fuller, smoother pout.	https://www.purcosmetics.com/on-point-lip-liner?utm_source=google_shopping	https://www.purcosmetics.com/media/catalog/product/o/n/onpointlipliner_lowkey_capoff_72dpi_1.jpg	https://www.purcosmetics.com/media/catalog/product/o/n/onpointlipliner_lowkey_swatch_72dpi_1.jpg,https://www.purcosmetics.com/media/catalog/product/o/n/onpointlipliner_lowkey_capon_72dpi_1.jpg	18.00 USD	 	 	in stock	0.03 lb	Pur Cosmetics	951557030	new	Pur Category > Makeup > Lips,Pur Category > Makeup > Shop All,Pur Category > Makeup	 	 	FALSE	 	847137024505	847137024505	951557030
11808	 	Velvet Matte Liquid Lipstick	Matte makeover.Dump those dry matte lipsticks. Velvet Matte Liquid Lipsticks provide sumptuous lip color in an innovative mousse texture that glides on with ease and coats lips in a rich and conditioning burst of color in a true matte finish. Designed with color perfecting technology, the formula does not flake or dry lips and provides a smooth and flawless finish. Soft, kissable lips and bold colour – it’s everything you want in a matte.	https://www.purcosmetics.com/new-velvet-matte-liquid-lipstick?utm_source=google_shopping	https://www.purcosmetics.com/media/catalog/product/v/e/velvetmatte_obsessed_capoff_72dpi.jpg	https://www.purcosmetics.com/media/catalog/product/v/e/velvetmatte_aboutlastnight_capoff_72dpi_2.jpg,https://www.purcosmetics.com/media/catalog/product/v/e/velvetmatte_fbf_capoff_72dpi_2.jpg,https://www.purcosmetics.com/media/catalog/product/v/e/velvetmatte_passion_capoff_72dpi_2.jpg,https://www.purcosmetics.com/media/catalog/product/v/e/velvetmatte_addiction_capoff_72dpi_2.jpg,https://www.purcosmetics.com/media/catalog/product/v/e/velvetmatte_fever_capoff_72dpi_2.jpg,https://www.purcosmetics.com/media/catalog/product/v/e/velvetmatte_duttywine_capoff_72dpi_2.jpg,https://www.purcosmetics.com/media/catalog/product/v/e/velvetmatte_innocent_capoff_72dpi_2.jpg,https://www.purcosmetics.com/media/catalog/product/v/e/velvetmatte_everafter_capoff_72dpi_3.jpg,https://www.purcosmetics.com/media/catalog/product/v/e/velvetmatte_ohbae_capoff_72dpi_3.jpg	18.00 USD	 	 	in stock	0.05 lb	Pur Cosmetics	11808	new	Pur Category > Makeup > Lips,Pur Category > Makeup > Shop All,Pur Category > Makeup	 	 	FALSE	 	 	 	11808
951558060	11808	Velvet Matte Liquid Lipstick in Obsessed	Matte makeover.Dump those dry matte lipsticks. Velvet Matte Liquid Lipsticks provide sumptuous lip color in an innovative mousse texture that glides on with ease and coats lips in a rich and conditioning burst of color in a true matte finish. Designed with color perfecting technology, the formula does not flake or dry lips and provides a smooth and flawless finish. Soft, kissable lips and bold colour – it’s everything you want in a matte.	https://www.purcosmetics.com/new-velvet-matte-liquid-lipstick?utm_source=google_shopping	https://www.purcosmetics.com/media/catalog/product/v/e/velvetmatte_obsessed_capoff_72dpi_1.jpg	https://www.purcosmetics.com/media/catalog/product/v/e/velvetmatte_obsessed_capon_72dpi_1.jpg,https://www.purcosmetics.com/media/catalog/product/v/e/velvet-matte-liquid-lipstick_swatch_obsessed_300dpi.jpg	18.00 USD	 	 	in stock	0.05 lb	Pur Cosmetics	951558060	new	Pur Category > Makeup > Lips,Pur Category > Makeup > Shop All,Pur Category > Makeup	 	 	FALSE	 	847137024895	847137024895	951558060
951558010	11808	Velvet Matte Liquid Lipstick in About Last Night	Matte makeover.Dump those dry matte lipsticks. Velvet Matte Liquid Lipsticks provide sumptuous lip color in an innovative mousse texture that glides on with ease and coats lips in a rich and conditioning burst of color in a true matte finish. Designed with color perfecting technology, the formula does not flake or dry lips and provides a smooth and flawless finish. Soft, kissable lips and bold colour – it’s everything you want in a matte.	https://www.purcosmetics.com/new-velvet-matte-liquid-lipstick?utm_source=google_shopping	https://www.purcosmetics.com/media/catalog/product/v/e/velvetmatte_aboutlastnight_capoff_72dpi.jpg	https://www.purcosmetics.com/media/catalog/product/v/e/velvetmatte_aboutlastnight_capon_72dpi.jpg,https://www.purcosmetics.com/media/catalog/product/v/e/velvet-matte-liquid-lipstick_swatch_aboutlastnight_72dpi.jpg	18.00 USD	 	 	in stock	0.05 lb	Pur Cosmetics	951558010	new	Pur Category > Makeup > Lips,Pur Category > Makeup > Shop All,Pur Category > Makeup	 	 	FALSE	 	847137024840	847137024840	951558010
951558080	11808	Velvet Matte Liquid Lipstick in Dutty Wine	Matte makeover.Dump those dry matte lipsticks. Velvet Matte Liquid Lipsticks provide sumptuous lip color in an innovative mousse texture that glides on with ease and coats lips in a rich and conditioning burst of color in a true matte finish. Designed with color perfecting technology, the formula does not flake or dry lips and provides a smooth and flawless finish. Soft, kissable lips and bold colour – it’s everything you want in a matte.	https://www.purcosmetics.com/new-velvet-matte-liquid-lipstick?utm_source=google_shopping	https://www.purcosmetics.com/media/catalog/product/v/e/velvetmatte_duttywine_capoff_72dpi.jpg	https://www.purcosmetics.com/media/catalog/product/v/e/velvetmatte_duttywine_capon_72dpi.jpg,https://www.purcosmetics.com/media/catalog/product/v/e/velvet-matte-liquid-lipstick_swatch_duttywine_72dpi.jpg	18.00 USD	 	 	in stock	0.05 lb	Pur Cosmetics	951558080	new	Pur Category > Makeup > Lips,Pur Category > Makeup > Shop All,Pur Category > Makeup	 	 	FALSE	 	847137024918	847137024918	951558080
951558090	11808	Velvet Matte Liquid Lipstick in FBF	Matte makeover.Dump those dry matte lipsticks. Velvet Matte Liquid Lipsticks provide sumptuous lip color in an innovative mousse texture that glides on with ease and coats lips in a rich and conditioning burst of color in a true matte finish. Designed with color perfecting technology, the formula does not flake or dry lips and provides a smooth and flawless finish. Soft, kissable lips and bold colour – it’s everything you want in a matte.	https://www.purcosmetics.com/new-velvet-matte-liquid-lipstick?utm_source=google_shopping	https://www.purcosmetics.com/media/catalog/product/v/e/velvetmatte_fbf_capoff_72dpi.jpg	https://www.purcosmetics.com/media/catalog/product/v/e/velvetmatte_fbf_capon_72dpi.jpg,https://www.purcosmetics.com/media/catalog/product/v/e/velvet-matte-liquid-lipstick_swatch_fbf_72dpi.jpg	18.00 USD	 	 	in stock	0.05 lb	Pur Cosmetics	951558090	new	Pur Category > Makeup > Lips,Pur Category > Makeup > Shop All,Pur Category > Makeup	 	 	FALSE	 	847137024925	847137024925	951558090
951559010	11808	Velvet Matte Liquid Lipstick in Passion	Matte makeover.Dump those dry matte lipsticks. Velvet Matte Liquid Lipsticks provide sumptuous lip color in an innovative mousse texture that glides on with ease and coats lips in a rich and conditioning burst of color in a true matte finish. Designed with color perfecting technology, the formula does not flake or dry lips and provides a smooth and flawless finish. Soft, kissable lips and bold colour – it’s everything you want in a matte.	https://www.purcosmetics.com/new-velvet-matte-liquid-lipstick?utm_source=google_shopping	https://www.purcosmetics.com/media/catalog/product/v/e/velvetmatte_passion_capoff_72dpi.jpg	https://www.purcosmetics.com/media/catalog/product/v/e/velvetmatte_passion_capon_72dpi.jpg,https://www.purcosmetics.com/media/catalog/product/v/e/velvet-matte-liquid-lipstick_swatch_passion_72dpi.jpg	18.00 USD	 	 	in stock	0.05 lb	Pur Cosmetics	951559010	new	Pur Category > Makeup > Lips,Pur Category > Makeup > Shop All,Pur Category > Makeup	 	 	FALSE	 	847137024932	847137024932	951559010
951558070	11808	Velvet Matte Liquid Lipstick in Oh Bae	Matte makeover.Dump those dry matte lipsticks. Velvet Matte Liquid Lipsticks provide sumptuous lip color in an innovative mousse texture that glides on with ease and coats lips in a rich and conditioning burst of color in a true matte finish. Designed with color perfecting technology, the formula does not flake or dry lips and provides a smooth and flawless finish. Soft, kissable lips and bold colour – it’s everything you want in a matte.	https://www.purcosmetics.com/new-velvet-matte-liquid-lipstick?utm_source=google_shopping	https://www.purcosmetics.com/media/catalog/product/v/e/velvetmatte_ohbae_capoff_72dpi.jpg	https://www.purcosmetics.com/media/catalog/product/v/e/velvetmatte_ohbae_capon_72dpi.jpg,https://www.purcosmetics.com/media/catalog/product/v/e/velvet-matte-liquid-lipstick_swatch_ohbea_72dpi.jpg	18.00 USD	 	 	in stock	0.05 lb	Pur Cosmetics	951558070	new	Pur Category > Makeup > Lips,Pur Category > Makeup > Shop All,Pur Category > Makeup	 	 	FALSE	 	847137024901	847137024901	951558070
951558020	11808	Velvet Matte Liquid Lipstick in Fever	Matte makeover.Dump those dry matte lipsticks. Velvet Matte Liquid Lipsticks provide sumptuous lip color in an innovative mousse texture that glides on with ease and coats lips in a rich and conditioning burst of color in a true matte finish. Designed with color perfecting technology, the formula does not flake or dry lips and provides a smooth and flawless finish. Soft, kissable lips and bold colour – it’s everything you want in a matte.	https://www.purcosmetics.com/new-velvet-matte-liquid-lipstick?utm_source=google_shopping	https://www.purcosmetics.com/media/catalog/product/v/e/velvetmatte_fever_capoff_72dpi.jpg	https://www.purcosmetics.com/media/catalog/product/v/e/velvetmatte_fever_capon_72dpi.jpg,https://www.purcosmetics.com/media/catalog/product/v/e/velvet-matte-liquid-lipstick_swatch_fever_72dpi.jpg	18.00 USD	 	 	in stock	0.05 lb	Pur Cosmetics	951558020	new	Pur Category > Makeup > Lips,Pur Category > Makeup > Shop All,Pur Category > Makeup	 	 	FALSE	 	847137024857	847137024857	951558020
951558030	11808	Velvet Matte Liquid Lipstick in Addiction	Matte makeover.Dump those dry matte lipsticks. Velvet Matte Liquid Lipsticks provide sumptuous lip color in an innovative mousse texture that glides on with ease and coats lips in a rich and conditioning burst of color in a true matte finish. Designed with color perfecting technology, the formula does not flake or dry lips and provides a smooth and flawless finish. Soft, kissable lips and bold colour – it’s everything you want in a matte.	https://www.purcosmetics.com/new-velvet-matte-liquid-lipstick?utm_source=google_shopping	https://www.purcosmetics.com/media/catalog/product/v/e/velvetmatte_addiction_capoff_72dpi.jpg	https://www.purcosmetics.com/media/catalog/product/v/e/velvet-matte-liquid-lipstick_swatch_addiction_72dpi.jpg,https://www.purcosmetics.com/media/catalog/product/v/e/velvetmatte_addiction_capon_72dpi.jpg	18.00 USD	 	 	in stock	0.05 lb	Pur Cosmetics	951558030	new	Pur Category > Makeup > Lips,Pur Category > Makeup > Shop All,Pur Category > Makeup	 	 	FALSE	 	847137024864	847137024864	951558030
951558040	11808	Velvet Matte Liquid Lipstick in Ever After	Matte makeover.Dump those dry matte lipsticks. Velvet Matte Liquid Lipsticks provide sumptuous lip color in an innovative mousse texture that glides on with ease and coats lips in a rich and conditioning burst of color in a true matte finish. Designed with color perfecting technology, the formula does not flake or dry lips and provides a smooth and flawless finish. Soft, kissable lips and bold colour – it’s everything you want in a matte.	https://www.purcosmetics.com/new-velvet-matte-liquid-lipstick?utm_source=google_shopping	https://www.purcosmetics.com/media/catalog/product/v/e/velvetmatte_everafter_capoff_72dpi_1.jpg	https://www.purcosmetics.com/media/catalog/product/v/e/velvet-matte-liquid-lipstick_swatch_everafter_72dpi_1.jpg,https://www.purcosmetics.com/media/catalog/product/v/e/velvetmatte_everafter_capon_72dpi_1.jpg	18.00 USD	 	 	out of stock	0.05 lb	Pur Cosmetics	951558040	new	Pur Category > Makeup > Lips,Pur Category > Makeup > Shop All,Pur Category > Makeup	 	 	FALSE	 	847137024871	847137024871	951558040
951558050	11808	Velvet Matte Liquid Lipstick in Innocent	Matte makeover.Dump those dry matte lipsticks. Velvet Matte Liquid Lipsticks provide sumptuous lip color in an innovative mousse texture that glides on with ease and coats lips in a rich and conditioning burst of color in a true matte finish. Designed with color perfecting technology, the formula does not flake or dry lips and provides a smooth and flawless finish. Soft, kissable lips and bold colour – it’s everything you want in a matte.	https://www.purcosmetics.com/new-velvet-matte-liquid-lipstick?utm_source=google_shopping	https://www.purcosmetics.com/media/catalog/product/v/e/velvetmatte_innocent_capoff_72dpi.jpg	https://www.purcosmetics.com/media/catalog/product/v/e/velvetmatte_innocent_capon_72dpi.jpg,https://www.purcosmetics.com/media/catalog/product/v/e/velvet-matte-liquid-lipstick_swatch_innocent_72dpi.jpg	18.00 USD	 	 	in stock	0.05 lb	Pur Cosmetics	951558050	new	Pur Category > Makeup > Lips,Pur Category > Makeup > Shop All,Pur Category > Makeup	 	 	FALSE	 	847137024888	847137024888	951558050
11809	 	PRO Eyelashes	What it is: A set of high quality 3-D false lashes made from incredibly soft, cruelty-free synthetic fibers that look and feel like real silk mink.   What it does: Enhance your eye look by adding fullness and length to your natural lashes. This collection of six  3-D silk eyelashes  lash styles is cruelty-free and was curated with celebrity makeup artist Mélanie Viger @MUAVEE. The lashes are handcrafted with the finest luxury synthetic fibers to provide ultra-lightweight, natural-looking lashes. These vegan lashes are durable, reusable up to 20 times and safe for contact wearers.	https://www.purcosmetics.com/pur-pro-eyelashes?utm_source=google_shopping	https://www.purcosmetics.com/media/catalog/product/p/u/pur_pro_lashes_ld-06_bombshell_72dpi.jpg	https://www.purcosmetics.com/media/catalog/product/p/u/pur_pro_lashes_ld-33_jetsetter_72dpi.jpg,https://www.purcosmetics.com/media/catalog/product/p/u/pur_pro_lashes_ld-03_trendsetter_72dpi.jpg,https://www.purcosmetics.com/media/catalog/product/p/u/pur_pro_lashes_ld-18_diva_72dpi.jpg,https://www.purcosmetics.com/media/catalog/product/p/u/pur_pro_lashes_ld-09_flirt_72dpi.jpg,https://www.purcosmetics.com/media/catalog/product/p/u/pur_pro_lashes_ld-38_socialite_72dpi.jpg,https://www.purcosmetics.com/media/catalog/product/m/o/most-loved-on-insta_pro_eyelashes-position3.jpg,https://www.purcosmetics.com/media/catalog/product/i/m/img_2973v2.jpg,https://www.purcosmetics.com/media/catalog/product/d/i/diva_1.jpg	14.00 USD	 	 	in stock	0.08 lb	Pur Cosmetics	11809	new	Pur Category > Makeup > Eyes > Eyelashes,Pur Category > Makeup > Eyes,Pur Category > Makeup > Shop All	 	 	FALSE	 	 	 	11809
951600030	11809	PRO Eyelashes in Flirt	Lash out.PÜR Pro Eyelashes were curated with celebrity makeup artist Mélanie Viger @MUAVEE to bring the best industry knowledge to our lash development. PÜR’s 3D lashes are handcrafted with the finest luxury silk to provide ultra-lightweight, natural-looking fuller lashes. These cruelty-free lashes are durable, reusable and safe for contact wearers.	https://www.purcosmetics.com/pur-pro-eyelashes?utm_source=google_shopping	https://www.purcosmetics.com/media/catalog/product/p/u/pur_pro_lashes_ld-09_flirt_72dpi_1.jpg	 	14.00 USD	 	 	in stock	0.05 lb	Pur Cosmetics	951600030	new	Pur Category > Makeup > Eyes > Eyelashes,Pur Category > Makeup > Eyes,Pur Category > Makeup > Shop All	 	 	FALSE	 	847137028305	847137028305	951600030
951600060	11809	PRO Eyelashes in Bombshell	Lash out.PÜR Pro Eyelashes were curated with celebrity makeup artist Mélanie Viger @MUAVEE to bring the best industry knowledge to our lash development. PÜR’s 3D lashes are handcrafted with the finest luxury silk to provide ultra-lightweight, natural-looking fuller lashes. These cruelty-free lashes are durable, reusable and safe for contact wearers.	https://www.purcosmetics.com/pur-pro-eyelashes?utm_source=google_shopping	https://www.purcosmetics.com/media/catalog/product/p/u/pur_pro_lashes_ld-06_bombshell_72dpi_1.jpg	https://www.purcosmetics.com/media/catalog/product/b/o/bombshell.jpg	14.00 USD	 	 	in stock	0.08 lb	Pur Cosmetics	951600060	new	Pur Category > Makeup > Eyes > Eyelashes,Pur Category > Makeup > Eyes,Pur Category > Makeup > Shop All	 	 	FALSE	 	847137028336	847137028336	951600060
951600070	11809	PRO Eyelashes in Trendsetter	Lash out.PÜR Pro Eyelashes were curated with celebrity makeup artist Mélanie Viger @MUAVEE to bring the best industry knowledge to our lash development. PÜR’s 3D lashes are handcrafted with the finest luxury silk to provide ultra-lightweight, natural-looking fuller lashes. These cruelty-free lashes are durable, reusable and safe for contact wearers.	https://www.purcosmetics.com/pur-pro-eyelashes?utm_source=google_shopping	https://www.purcosmetics.com/media/catalog/product/p/u/pur_pro_lashes_ld-03_trendsetter_72dpi_1.jpg	 	14.00 USD	 	 	in stock	0.05 lb	Pur Cosmetics	951600070	new	Pur Category > Makeup > Eyes > Eyelashes,Pur Category > Makeup > Eyes,Pur Category > Makeup > Shop All	 	 	FALSE	 	847137028343	847137028343	951600070
951600040	11809	PRO Eyelashes in Socialite	Lash out.PÜR Pro Eyelashes were curated with celebrity makeup artist Mélanie Viger @MUAVEE to bring the best industry knowledge to our lash development. PÜR’s 3D lashes are handcrafted with the finest luxury silk to provide ultra-lightweight, natural-looking fuller lashes. These cruelty-free lashes are durable, reusable and safe for contact wearers.	https://www.purcosmetics.com/pur-pro-eyelashes?utm_source=google_shopping	https://www.purcosmetics.com/media/catalog/product/p/u/pur_pro_lashes_ld-38_socialite_72dpi_1.jpg	https://www.purcosmetics.com/media/catalog/product/i/m/img_2963v2_4.jpg,https://www.purcosmetics.com/media/catalog/product/s/o/socialite.jpg	14.00 USD	 	 	in stock	0.08 lb	Pur Cosmetics	951600040	new	Pur Category > Makeup > Eyes > Eyelashes,Pur Category > Makeup > Eyes,Pur Category > Makeup > Shop All	 	 	FALSE	 	847137028312	847137028312	951600040
951600050	11809	PRO Eyelashes in Diva	Lash out.PÜR Pro Eyelashes were curated with celebrity makeup artist Mélanie Viger @MUAVEE to bring the best industry knowledge to our lash development. PÜR’s 3D lashes are handcrafted with the finest luxury silk to provide ultra-lightweight, natural-looking fuller lashes. These cruelty-free lashes are durable, reusable and safe for contact wearers.	https://www.purcosmetics.com/pur-pro-eyelashes?utm_source=google_shopping	https://www.purcosmetics.com/media/catalog/product/p/u/pur_pro_lashes_ld-18_diva_72dpi_1.jpg	 	14.00 USD	 	 	in stock	0.08 lb	Pur Cosmetics	951600050	new	Pur Category > Makeup > Eyes > Eyelashes,Pur Category > Makeup > Eyes,Pur Category > Makeup > Shop All	 	 	FALSE	 	847137028329	847137028329	951600050
951600020	11809	PRO Eyelashes in Jetsetter	Lash out.PÜR Pro Eyelashes were curated with celebrity makeup artist Mélanie Viger @MUAVEE to bring the best industry knowledge to our lash development. PÜR’s 3D lashes are handcrafted with the finest luxury silk to provide ultra-lightweight, natural-looking fuller lashes. These cruelty-free lashes are durable, reusable and safe for contact wearers.	https://www.purcosmetics.com/pur-pro-eyelashes?utm_source=google_shopping	https://www.purcosmetics.com/media/catalog/product/p/u/pur_pro_lashes_ld-33_jetsetter_72dpi_1.jpg	 	14.00 USD	 	 	in stock	0.08 lb	Pur Cosmetics	951600020	new	Pur Category > Makeup > Eyes > Eyelashes,Pur Category > Makeup > Eyes,Pur Category > Makeup > Shop All	 	 	FALSE	 	847137028299	847137028299	951600020
951745040	 	Goal Digger Vanity Palette	Get it girl.This portable vanity palette is perfect for your busy lifestyle. With 4 eye shadows, a blush, bronzer and highlighter, taking your look from meetings to midnight is simple with just a click of a compact. The oversized mirror and color collection is edited for easy updates to your makeup that fit your active day. Don’t overthink your makeup while trying to chase your dreams. Goal Digger:  This portable vanity case palette is perfect for your busy lifestyle. With 4 eye shadows, a blush, bronzer and highlighter, taking your look from meetings to midnight is simple with just a click of a compact. The oversized mirror and color collection is edited for easy updates to your makeup that fit your active day.  Don’t overthink your makeup while trying to reach your goals.	https://www.purcosmetics.com/goal-digger-vanity-palette?utm_source=google_shopping	https://www.purcosmetics.com/media/catalog/product/v/a/vanitypalettes-goaldigger_shiny_open_72dpi.jpg	https://www.purcosmetics.com/media/catalog/product/v/a/vanitypalettes-goaldigger_closed_72dpi.jpg,https://www.purcosmetics.com/media/catalog/product/v/a/vanitypalette-goaldigger-matte-swatches_72dpi.jpg,https://www.purcosmetics.com/media/catalog/product/1/d/1d_1400x830_hero_la_skyline.jpg,https://www.purcosmetics.com/media/catalog/product/s/a/sam_3235.jpg	36.00 USD	17.00 USD	2017-12-12T00:00:00-05:00/2020-03-05T23:59:59-05:00	in stock	0.24 lb	Pur Cosmetics	951745040	new	Pur Category > Makeup > Eyes > Eyeshadow,Pur Category > Makeup > Shop All,Pur Category > Sale	 	 	FALSE	 	847137023539	847137023539	951745040
951188010	 	Make It Matte Oil Mattifying Primer Stick	See ya shine! Oily skin has finally met its matte. This versatile blotting stick instantly mattifies and perfects without over drying the skin, leaving you with a shine-free look that’s comfortable. Use it before makeup application as a mattifying primer or on-the-go for touchups throughout the day. Breakthrough shine doesn’t stand a chance!	https://www.purcosmetics.com/make-it-matte-stick?utm_source=google_shopping	https://www.purcosmetics.com/media/catalog/product/m/a/makeitmatte_capoff_72dpi.jpg	https://www.purcosmetics.com/media/catalog/product/m/a/make-it-matte-retouched-2_1200x1200_1.jpg,https://www.purcosmetics.com/media/catalog/product/m/a/makeitmatte_capon_72dpi.jpg	26.00 USD	 	 	in stock	12.85 lb	Pur Cosmetics	951188010	new	Pur Category > Makeup > Face > Primer,Pur Category > Makeup > Face,Pur Category > Makeup > Shop All	 	 	FALSE	 	847137027148	847137027148	951188010
951746010	 	Bronze Your Selfie Face & Body Liquid Bronzer	Bronze your selfie with liquid gold and added radiance for your entire body. This liquid bronzer veils the skin in PÜR’s skin nourishing and perfecting Energy Complex and a prismatic, imperfection blurring bronzer technology that gives a natural sexy sun-kissed hue. This versatile formula can be worn alone or with makeup and on both the face and body. It easily smooths onto skin and locks into place for long-lasting tropical radiance.	https://www.purcosmetics.com/bronze-your-selfie?utm_source=google_shopping	https://www.purcosmetics.com/media/catalog/product/b/r/bronzeyourselfie_capon_72dpi.jpg	https://www.purcosmetics.com/media/catalog/product/b/r/bronzeyourselfie_swatch_72dpi.jpg	26.00 USD	10.00 USD	2018-05-11T00:00:00-04:00/2020-03-05T23:59:59-05:00	in stock	0.19 lb	Pur Cosmetics	951746010	new	Pur Category > Makeup > Cheeks,Pur Category > Makeup > Shop All,Pur Category > Sale	 	 	FALSE	 	847137026578	847137026578	951746010
11812	 	Bestsellers Kit	Our bestsellers kit is your ultimate must-have beauty collection with our bestselling, award-winning 4-in-1 Powder Foundation, Bronzer, Mascara, Correcting Primer and a Chisel Brush. Benefits: Prep & Perfect Correcting Primer minimizes the look of pores and imperfections for a flawless finish. Mineral Glow Powder is a mineral powder with golden undertones is infused with antioxidants to keep your skin looking healthy and glowing. 4-in-1 Pressed Mineral Powder Foundation SPF 15 is your foundation, powder, concealer and sun protector all-in-one. Big Look Mascara lengthens, thickens, curls and hydrates lashes for maximum intensity. Chisel makeup brush offers smooth, easy application. A $105 value! Includes: Prep & Perfect Correcting Primer (0.3 oz) Mineral Glow Powder (0.12 oz) 4-In-1 Pressed Mineral Powder Foundation(0.15 oz) Big Look Mascara (0.17 oz) Chisel Makeup Brush	https://www.purcosmetics.com/bestsellers-kit?utm_source=google_shopping	https://www.purcosmetics.com/media/catalog/product/b/e/bestsellersproductimage_light_1.jpg	https://www.purcosmetics.com/media/catalog/product/b/e/bestsellersproductimage_goldenmedium_1.jpg,https://www.purcosmetics.com/media/catalog/product/b/e/bestsellersproductimage_blushmedium.jpg,https://www.purcosmetics.com/media/catalog/product/b/e/bestsellersproductimage_lighttan.jpg,https://www.purcosmetics.com/media/catalog/product/b/e/bestsellersproductimage_tan_1.jpg,https://www.purcosmetics.com/media/catalog/product/b/e/best-sellers-fc-rendering_72dpi_2_1.jpg,https://www.purcosmetics.com/media/catalog/product/b/e/best-sellers-fc-rendering_72dpi_3_1.jpg,https://www.purcosmetics.com/media/catalog/product/b/e/best-sellers-fc-rendering_72dpi_3.jpg,https://www.purcosmetics.com/media/catalog/product/b/e/best-sellers-fc-rendering_72dpi_4.jpg,https://www.purcosmetics.com/media/catalog/product/b/e/best-sellers-fc-rendering_72dpi_1_1.jpg	38.00 USD	 	 	in stock	0.41 lb	Pur Cosmetics	11812	new	Pur Category > Makeup > Kits,Pur Category > Makeup > Shop All,Pur Category > Makeup	 	 	FALSE	 	 	 	11812
951770610	11812	Bestsellers Kit in Light	Our bestsellers kit is your ultimate must-have beauty collection with our bestselling, award-winning 4-in-1 Powder Foundation, Bronzer, Mascara, Correcting Primer and a Chisel Brush. Benefits: Prep & Perfect Correcting Primer minimizes the look of pores and imperfections for a flawless finish. Mineral Glow Powder is a mineral powder with golden undertones is infused with antioxidants to keep your skin looking healthy and glowing. 4-in-1 Pressed Mineral Powder Foundation SPF 15 is your foundation, powder, concealer and sun protector all-in-one. Big Look Mascara lengthens, thickens, curls and hydrates lashes for maximum intensity. Chisel makeup brush offers smooth, easy application. A $105 value! Includes: Prep & Perfect Correcting Primer (0.3 oz) Mineral Glow Powder (0.12 oz) 4-In-1 Pressed Mineral Powder Foundation(0.15 oz) Big Look Mascara (0.17 oz) Chisel Makeup Brush	https://www.purcosmetics.com/bestsellers-kit?utm_source=google_shopping	https://www.purcosmetics.com/media/catalog/product/b/e/bestsellersproductimage_light.jpg	https://www.purcosmetics.com/media/catalog/product/b/e/best-sellers-fc-rendering_72dpi.jpg	38.00 USD	 	 	in stock	0.41 lb	Pur Cosmetics	951770610	new	Pur Category > Makeup > Kits,Pur Category > Makeup > Shop All,Pur Category > Makeup	 	 	FALSE	 	847137006570	847137006570	951770610
951770620	11812	Bestsellers Kit in Blush Medium	Our bestsellers kit is your ultimate must-have beauty collection with our bestselling, award-winning 4-in-1 Powder Foundation, Bronzer, Mascara, Correcting Primer and a Chisel Brush. Benefits: Prep & Perfect Correcting Primer minimizes the look of pores and imperfections for a flawless finish. Mineral Glow Powder is a mineral powder with golden undertones is infused with antioxidants to keep your skin looking healthy and glowing. 4-in-1 Pressed Mineral Powder Foundation SPF 15 is your foundation, powder, concealer and sun protector all-in-one. Big Look Mascara lengthens, thickens, curls and hydrates lashes for maximum intensity. Chisel makeup brush offers smooth, easy application. A $105 value! Includes: Prep & Perfect Correcting Primer (0.3 oz) Mineral Glow Powder (0.12 oz) 4-In-1 Pressed Mineral Powder Foundation(0.15 oz) Big Look Mascara (0.17 oz) Chisel Makeup Brush	https://www.purcosmetics.com/bestsellers-kit?utm_source=google_shopping	https://www.purcosmetics.com/media/catalog/product/b/e/bestsellersproductimage_blushmedium_1.jpg	https://www.purcosmetics.com/media/catalog/product/b/e/best-sellers-fc-rendering_72dpi_5.jpg	38.00 USD	 	 	in stock	0.41 lb	Pur Cosmetics	951770620	new	Pur Category > Makeup > Kits,Pur Category > Makeup > Shop All,Pur Category > Makeup	 	 	FALSE	 	847137006587	847137006587	951770620
951770630	11812	Bestsellers Kit in Light Tan	Our bestsellers kit is your ultimate must-have beauty collection with our bestselling, award-winning 4-in-1 Powder Foundation, Bronzer, Mascara, Correcting Primer and a Chisel Brush. Benefits: Prep & Perfect Correcting Primer minimizes the look of pores and imperfections for a flawless finish. Mineral Glow Powder is a mineral powder with golden undertones is infused with antioxidants to keep your skin looking healthy and glowing. 4-in-1 Pressed Mineral Powder Foundation SPF 15 is your foundation, powder, concealer and sun protector all-in-one. Big Look Mascara lengthens, thickens, curls and hydrates lashes for maximum intensity. Chisel makeup brush offers smooth, easy application. A $105 value! Includes: Prep & Perfect Correcting Primer (0.3 oz) Mineral Glow Powder (0.12 oz) 4-In-1 Pressed Mineral Powder Foundation(0.15 oz) Big Look Mascara (0.17 oz) Chisel Makeup Brush	https://www.purcosmetics.com/bestsellers-kit?utm_source=google_shopping	https://www.purcosmetics.com/media/catalog/product/b/e/bestsellersproductimage_lighttan_1.jpg	https://www.purcosmetics.com/media/catalog/product/b/e/best-sellers-fc-rendering_72dpi_6.jpg	38.00 USD	 	 	in stock	0.41 lb	Pur Cosmetics	951770630	new	Pur Category > Makeup > Kits,Pur Category > Makeup > Shop All,Pur Category > Makeup	 	 	FALSE	 	847137006594	847137006594	951770630
951770640	11812	Bestsellers Kit in Tan	Our bestsellers kit is your ultimate must-have beauty collection with our bestselling, award-winning 4-in-1 Powder Foundation, Bronzer, Mascara, Correcting Primer and a Chisel Brush. Benefits: Prep & Perfect Correcting Primer minimizes the look of pores and imperfections for a flawless finish. Mineral Glow Powder is a mineral powder with golden undertones is infused with antioxidants to keep your skin looking healthy and glowing. 4-in-1 Pressed Mineral Powder Foundation SPF 15 is your foundation, powder, concealer and sun protector all-in-one. Big Look Mascara lengthens, thickens, curls and hydrates lashes for maximum intensity. Chisel makeup brush offers smooth, easy application. A $105 value! Includes: Prep & Perfect Correcting Primer (0.3 oz) Mineral Glow Powder (0.12 oz) 4-In-1 Pressed Mineral Powder Foundation(0.15 oz) Big Look Mascara (0.17 oz) Chisel Makeup Brush	https://www.purcosmetics.com/bestsellers-kit?utm_source=google_shopping	https://www.purcosmetics.com/media/catalog/product/b/e/bestsellersproductimage_tan.jpg	https://www.purcosmetics.com/media/catalog/product/b/e/best-sellers-fc-rendering_72dpi_1.jpg	38.00 USD	 	 	in stock	0.41 lb	Pur Cosmetics	951770640	new	Pur Category > Makeup > Kits,Pur Category > Makeup > Shop All,Pur Category > Makeup	 	 	FALSE	 	847137006600	847137006600	951770640
951770650	11812	Bestsellers Kit in Golden Medium	Our bestsellers kit is your ultimate must-have beauty collection with our bestselling, award-winning 4-in-1 Powder Foundation, Bronzer, Mascara, Correcting Primer and a Chisel Brush. Benefits: Prep & Perfect Correcting Primer minimizes the look of pores and imperfections for a flawless finish. Mineral Glow Powder is a mineral powder with golden undertones is infused with antioxidants to keep your skin looking healthy and glowing. 4-in-1 Pressed Mineral Powder Foundation SPF 15 is your foundation, powder, concealer and sun protector all-in-one. Big Look Mascara lengthens, thickens, curls and hydrates lashes for maximum intensity. Chisel makeup brush offers smooth, easy application. A $105 value! Includes: Prep & Perfect Correcting Primer (0.3 oz) Mineral Glow Powder (0.12 oz) 4-In-1 Pressed Mineral Powder Foundation(0.15 oz) Big Look Mascara (0.17 oz) Chisel Makeup Brush	https://www.purcosmetics.com/bestsellers-kit?utm_source=google_shopping	https://www.purcosmetics.com/media/catalog/product/b/e/bestsellersproductimage_goldenmedium.jpg	https://www.purcosmetics.com/media/catalog/product/b/e/best-sellers-fc-rendering_72dpi_2.jpg	38.00 USD	 	 	in stock	0.41 lb	Pur Cosmetics	951770650	new	Pur Category > Makeup > Kits,Pur Category > Makeup > Shop All,Pur Category > Makeup	 	 	FALSE	 	847137006617	847137006617	951770650
951457060	 	On Point Liquid Eyeliner	What it is: An ultra-matte liquid eyeliner with a thin felt tip for precise and easy application.   What it does: Get a bold, dramatic wing that is always on point. The fine and flexible felt tip delivers thin to thick lines with ease without smudging, creasing or fading. It goes on smoothly without skipping or pulling and is quick to dry. This ultra-matte liquid liner is enriched with Lash Rejuvenation Complex and Passion Flower Oil to prevent premature lash fallout and provides skin with needed moisture without causing the formula to smudge or run. Also, it’s ocular tested and safe for sensitive eyes.   What it is formulated WITHOUT:  - Parabens-  Gluten- Animal byproducts or derivatives-  Alcohol - BPA 	https://www.purcosmetics.com/on-point-liquid-eyeliner?utm_source=google_shopping	https://www.purcosmetics.com/media/catalog/product/o/n/onpointeyeliner_liquid_vip_capoff_72dpi.jpg	https://www.purcosmetics.com/media/catalog/product/o/n/onpointeyeliner_liquid_vip-swatch-72dpi.jpg,https://www.purcosmetics.com/media/catalog/product/o/n/onpointeyeliner_liquid_vip_capon_72dpi.jpg	19.00 USD	 	 	in stock	4.54 lb	Pur Cosmetics	951457060	new	Pur Category > Makeup > Eyes > Eyeliner,Pur Category > Makeup > Eyes,Pur Category > Makeup > Shop All	 	 	FALSE	 	847137055172	847137055172	951457060
951745070	 	Contour Diaries Palette	With Contour Diaries Contour Palette, you too can sculpt and define your makeup story. Featuring three super creamy and blendable shades for contouring and three luminious shades for highlighting, this 6-piece contour and highlight palette makes it easy to accentuate like a pro. The lighter shades are used to draw soft, "lit from within" attention to the high points of the face and help brighten the dark shadows that may lurk under the eyes. The darker shades create faux shadows that chisel your cheekbones or slenderize other facial features. These buildable powders are mixable and customizable to create the right highlight and dimension for every skin tone. Get truly envious features instantly.      Six versatile shades for all skin tones:Charm: Light pink/peachDream: Golden hue Flirt: Warm peach Secret: Light brown Passion: Warm brown Mystery: Deep brown	https://www.purcosmetics.com/contour-diaries-palette?utm_source=google_shopping	https://www.purcosmetics.com/media/catalog/product/c/o/contordiaries2.jpg	https://www.purcosmetics.com/media/catalog/product/i/m/img_6242_edited_cropped.jpg,https://www.purcosmetics.com/media/catalog/product/b/r/brittany_contour.jpg,https://www.purcosmetics.com/media/catalog/product/r/i/riley_contour.jpg,https://www.purcosmetics.com/media/catalog/product/c/o/contour-diaries-eyeshadow-palette-frontclosed_72dpi.jpg	32.00 USD	 	 	in stock	0.45 lb	Pur Cosmetics	951745070	new	Pur Category > Makeup > Cheeks > Bronzer & Contour,Pur Category > Makeup > Cheeks,Pur Category > Makeup > Kits	 	 	FALSE	 	847137021993	847137021993	951745070
11814	 	On Point Eyeliner Pencil	Bring the precision of a pen to your eye look with a self-sharpening eyeliner in an assortment of highly pigmented and buttery shades. This creamy 10+ hour longwear and waterproof formula will deliver vivid eye looks that lock in place without fading or smudging. Enriched with Lash Rejuvenation Complex, Ceramide III, and essential oils, this formula helps to prevent premature lash fallout and provides skin with needed moisture at the lash line without causing the formula to smudge or budge. Additionally, it’s ocular tested and safe for sensitive eyes!   Hotline (Metallic Hunter Green) Down to Earth (Chocolate Brown) Heartless (Black) Rain (Plum) Not Sorry (Dove Grey)	https://www.purcosmetics.com/on-point-eyeliner-pencil?utm_source=google_shopping	https://www.purcosmetics.com/media/catalog/product/o/n/onpointeyeliner-heartless-capoff-72dpi.jpg	https://www.purcosmetics.com/media/catalog/product/o/n/onpointeyeliner-rain-capoff-72dpi.jpg,https://www.purcosmetics.com/media/catalog/product/o/n/onpointeyeliner-hotline-capoff-72dpi_3.jpg,https://www.purcosmetics.com/media/catalog/product/o/n/onpointeyeliner-downtoearth-capoff-72dpi.jpg,https://www.purcosmetics.com/media/catalog/product/o/n/onpointeyeliner-notsorry-capoff-72dpi.jpg,https://www.purcosmetics.com/media/catalog/product/o/n/on-point-eyelinergraphic_10.jpg,https://www.purcosmetics.com/media/catalog/product/o/n/on-point-eyelinergraphic.jpg,https://www.purcosmetics.com/media/catalog/product/o/n/on-point-eyelinergraphic_1.jpg,https://www.purcosmetics.com/media/catalog/product/o/n/on-point-eyelinergraphic_2.jpg,https://www.purcosmetics.com/media/catalog/product/o/n/on-point-eyelinergraphic_4.jpg	19.00 USD	 	 	in stock	4.54 lb	Pur Cosmetics	11814	new	Pur Category > Makeup > Eyes > Eyeliner,Pur Category > Makeup > Eyes,Pur Category > Makeup > Shop All	 	 	FALSE	 	 	 	11814
951457010	11814	On Point Eyeliner Pencil in Heartless	Bring the precision of a pen to your eye look with a self-sharpening eyeliner in an assortment of high-pigment shades. This 10+ hour longwear and waterproof formula will deliver vivid eye looks that lock in place without fading or smudging. Enriched with Lash Rejuvenation Complex, Ceramide III, and essential oils, this formula helps to prevent premature lash fallout and provide skin with needed moisture at the lash line without causing the formula to smudge or budge. Also, it’s ocular tested and safe for sensitive eyes.	https://www.purcosmetics.com/on-point-eyeliner-pencil?utm_source=google_shopping	https://www.purcosmetics.com/media/catalog/product/o/n/onpointeyeliner-heartless-capon-72dpi_1.jpg	https://www.purcosmetics.com/media/catalog/product/o/n/on-point-eyelinergraphic_5.jpg,https://www.purcosmetics.com/media/catalog/product/o/n/onpointeyeliner-heartless-swatch-72dpi_1.jpg,https://www.purcosmetics.com/media/catalog/product/o/n/onpointeyeliner-heartless-capoff-72dpi_1.jpg	19.00 USD	 	 	in stock	4.54 lb	Pur Cosmetics	951457010	new	Pur Category > Makeup > Eyes > Eyeliner,Pur Category > Makeup > Eyes,Pur Category > Makeup > Shop All	 	 	FALSE	 	847137028121	847137028121	951457010
951457020	11814	On Point Eyeliner Pencil in Down To Earth	Bring the precision of a pen to your eye look with a self-sharpening eyeliner in an assortment of high-pigment shades. This 10+ hour longwear and waterproof formula will deliver vivid eye looks that lock in place without fading or smudging. Enriched with Lash Rejuvenation Complex, Ceramide III, and essential oils, this formula helps to prevent premature lash fallout and provide skin with needed moisture at the lash line without causing the formula to smudge or budge. Also, it’s ocular tested and safe for sensitive eyes.	https://www.purcosmetics.com/on-point-eyeliner-pencil?utm_source=google_shopping	https://www.purcosmetics.com/media/catalog/product/o/n/onpointeyeliner-downtoearth-capoff-72dpi_1.jpg	https://www.purcosmetics.com/media/catalog/product/o/n/on-point-eyelinergraphic_6.jpg,https://www.purcosmetics.com/media/catalog/product/o/n/onpointeyeliner-down-to-earth-swatch-72dpi_1.jpg,https://www.purcosmetics.com/media/catalog/product/o/n/onpointeyeliner-downtoearth-capon-72dpi_1.jpg	19.00 USD	 	 	in stock	4.54 lb	Pur Cosmetics	951457020	new	Pur Category > Makeup > Eyes > Eyeliner,Pur Category > Makeup > Eyes,Pur Category > Makeup > Shop All	 	 	FALSE	 	847137028138	847137028138	951457020
951457030	11814	On Point Eyeliner Pencil in Rain	Bring the precision of a pen to your eye look with a self-sharpening eyeliner in an assortment of high-pigment shades. This 10+ hour longwear and waterproof formula will deliver vivid eye looks that lock in place without fading or smudging. Enriched with Lash Rejuvenation Complex, Ceramide III, and essential oils, this formula helps to prevent premature lash fallout and provide skin with needed moisture at the lash line without causing the formula to smudge or budge. Also, it’s ocular tested and safe for sensitive eyes.	https://www.purcosmetics.com/on-point-eyeliner-pencil?utm_source=google_shopping	https://www.purcosmetics.com/media/catalog/product/o/n/onpointeyeliner-rain-capon-72dpi_1.jpg	https://www.purcosmetics.com/media/catalog/product/o/n/on-point-eyelinergraphic_7.jpg,https://www.purcosmetics.com/media/catalog/product/o/n/onpointeyeliner-rain-swatch-72dpi_1.jpg,https://www.purcosmetics.com/media/catalog/product/o/n/onpointeyeliner-rain-capoff-72dpi_1.jpg	19.00 USD	 	 	in stock	4.54 lb	Pur Cosmetics	951457030	new	Pur Category > Makeup > Eyes > Eyeliner,Pur Category > Makeup > Eyes,Pur Category > Makeup > Shop All	 	 	FALSE	 	847137028145	847137028145	951457030
951457040	11814	On Point Eyeliner Pencil in Not Sorry	Bring the precision of a pen to your eye look with a self-sharpening eyeliner in an assortment of high-pigment shades. This 10+ hour longwear and waterproof formula will deliver vivid eye looks that lock in place without fading or smudging. Enriched with Lash Rejuvenation Complex, Ceramide III, and essential oils, this formula helps to prevent premature lash fallout and provide skin with needed moisture at the lash line without causing the formula to smudge or budge. Also, it’s ocular tested and safe for sensitive eyes.	https://www.purcosmetics.com/on-point-eyeliner-pencil?utm_source=google_shopping	https://www.purcosmetics.com/media/catalog/product/o/n/onpointeyeliner-notsorry-capoff-72dpi_1.jpg	https://www.purcosmetics.com/media/catalog/product/o/n/on-point-eyelinergraphic_8.jpg,https://www.purcosmetics.com/media/catalog/product/o/n/onpointeyeliner-notsorry-swatch-72dpi_1.jpg,https://www.purcosmetics.com/media/catalog/product/o/n/onpointeyeliner-notsorry-capon-72dpi_1.jpg	19.00 USD	 	 	in stock	4.54 lb	Pur Cosmetics	951457040	new	Pur Category > Makeup > Eyes > Eyeliner,Pur Category > Makeup > Eyes,Pur Category > Makeup > Shop All	 	 	FALSE	 	847137028152	847137028152	951457040
951457050	11814	On Point Eyeliner Pencil in Hotline	Bring the precision of a pen to your eye look with a self-sharpening eyeliner in an assortment of high-pigment shades. This 10+ hour longwear and waterproof formula will deliver vivid eye looks that lock in place without fading or smudging. Enriched with Lash Rejuvenation Complex, Ceramide III, and essential oils, this formula helps to prevent premature lash fallout and provide skin with needed moisture at the lash line without causing the formula to smudge or budge. Also, it’s ocular tested and safe for sensitive eyes.	https://www.purcosmetics.com/on-point-eyeliner-pencil?utm_source=google_shopping	https://www.purcosmetics.com/media/catalog/product/o/n/onpointeyeliner-hotline-capoff-72dpi_1.jpg	https://www.purcosmetics.com/media/catalog/product/o/n/on-point-eyelinergraphic_9.jpg,https://www.purcosmetics.com/media/catalog/product/o/n/onpointeyeliner-hotline-swatch-72dpi_1.jpg,https://www.purcosmetics.com/media/catalog/product/o/n/onpointeyeliner-hotline-capon-72dpi_1.jpg	19.00 USD	 	 	in stock	4.54 lb	Pur Cosmetics	951457050	new	Pur Category > Makeup > Eyes > Eyeliner,Pur Category > Makeup > Eyes,Pur Category > Makeup > Shop All	 	 	FALSE	 	847137028169	847137028169	951457050
951691110	 	Pillow Blend	Waste not. Want not. The Pillow Blend is the hottest innovation in makeup application. The silicone applicator lasts longer than a sponge – which need be replaced every two months – and absorbs less makeup than a brush. (Even synthetic brushes that are less porous than natural brushes can trap pigment at the base.) With Pillow Blend, you can use less makeup to get the same flawless coverage you would achieve with a blending sponge or professional brushes. By using the silicone blending applicator to apply the liquid or cream products, the amount needed for application is reduced by nearly half. It’s also more hygeniec than using your hands which can deposit unwanted dirt, oil and bacteria on the skin. The oil-resistant Pillow Blend is latex free and reusable which helps minimize waste for working makeup artists and helps minimize cost over time for makeup lovers.	https://www.purcosmetics.com/pillow-blend-silicone-blending-applicator?utm_source=google_shopping	https://www.purcosmetics.com/media/catalog/product/p/i/pillow-blend-silicone--72dpi.jpg	https://www.purcosmetics.com/media/catalog/product/i/m/img_6409-product-page-1200x1200.jpg,https://www.purcosmetics.com/media/catalog/product/i/m/img_6423-product-page-pro-tip.jpg	12.00 USD	 	 	in stock	0.25 lb	Pur Cosmetics	951691110	new	Pur Category > Makeup > Brushes & Tools,Pur Category > Makeup > Shop All,Pur Category > Makeup	 	 	FALSE	 	847137031015	847137031015	951691110
951816010	 	My Little Pony: The Movie Collection Eyeshadow Palette	Embark on your own beautiful journey through Equestria with our favorite rainbow-colored friends. Inspired by the wild adventures of My Little Pony: The Movie, this 16-piece eyeshadow palette features a kaleidoscope of colors including mattes, shimmers and bold brights. From everyday neutrals to flirty shimmers – all the basics are covered. However it’s the pops of unexpected but wearable colors that work together to create looks beyond your imagination. That’s the Magic of Friendship! Discover Your Favorite Shade:  KINDNESS (yellow with small pearl), FLUTTERSHY (soft pink with shimmer), GENEROSITY (matte mauve), RARITY (matte white), APPLEJACK (orange with shimmer), HONESTY (brown), LAUGHTER (sparkly mauve pink), PINKIE PIE (hot pink matte), TWILIGHT SPARKLE (pinky purple shimmer), MAGIC (bright purple), RAINBOW DASH (royal blue with shimmer), LOYALTY (dark green with shimmer), TEMPEST SHADOW (matte bright red), SONGBIRD SERENADE (dark purple with shimmer), STORM KING (silver with	https://www.purcosmetics.com/my-little-pony-the-movie-collection-eyeshadow-palette?utm_source=google_shopping	https://www.purcosmetics.com/media/catalog/product/m/l/mlp-sale-.jpg	https://www.purcosmetics.com/media/catalog/product/p/u/pur-hailie-barber-my-little-pony-product-page-1200x1200.jpg,https://www.purcosmetics.com/media/catalog/product/p/u/pur-hailie-barber-my-little-pony-palette-product-page-1200x1200.jpg,https://www.purcosmetics.com/media/catalog/product/m/l/mlp-palette-fc-front_72dpi.jpg,https://www.purcosmetics.com/media/catalog/product/m/l/mlp-palette-closed_72dpi.jpg,https://www.purcosmetics.com/media/catalog/product/m/l/mlp-palette-sideview_72dpi.jpg,https://www.purcosmetics.com/media/catalog/product/r/a/rainbow_dash_for_web.jpg	29.00 USD	14.00 USD	2018-04-04T00:00:00-04:00/2020-03-05T23:59:59-05:00	out of stock	0.30 lb	Pur Cosmetics	951816010	new	Pur Category > Makeup > Eyes > Eyeshadow,Pur Category > Makeup > Eyes,Pur Category > Makeup > Palettes	 	 	FALSE	 	847137030582	847137030582	951816010
951552110	 	My Little Pony: The Movie Glitter Lip Gloss Topper in Rainbow Dash	Embark on your own journey through Equestria with this high-shine glittery lip gloss collection. Inspired by My Little Pony: The Movie, this collection follows the Mane 6 ponies on their quest to save their home using the Magic of Friendship. Shade Descriptions:  - Rainbow Dash (Iridescent Blue)- Fluttershy (Pinky Orange)- Pinkie Pie (Neon Pink)- Twilight Sparkle (Lavender)- Rarity (Holographic Iridescent)- Applejack (Orangey Brown)	https://www.purcosmetics.com/my-little-pony-the-movie-collection-glitter-lip-gloss-topper-rainbow-dash?utm_source=google_shopping	https://www.purcosmetics.com/media/catalog/product/m/l/mlp-lipgloss-rainbowdash_capoff_72dpi_1.jpg	https://www.purcosmetics.com/media/catalog/product/i/m/img_3056_1.jpg,https://www.purcosmetics.com/media/catalog/product/i/m/img_3060.png,https://www.purcosmetics.com/media/catalog/product/i/m/img_3054_1.jpg,https://www.purcosmetics.com/media/catalog/product/m/l/mlp-lipgloss-rainbowdash_capon_72dpi_1.jpg	16.00 USD	5.00 USD	2018-04-04T00:00:00-04:00/2020-03-05T23:59:59-05:00	in stock	9.84 lb	Pur Cosmetics	951552110	new	Pur Category > Makeup > Shop By Collection > My Little Pony: The Movie,Pur Category > Makeup > Lips,Pur Category > Makeup > Shop All	 	 	FALSE	 	847137031121	847137031121	951552110
951927010	 	My Little Pony: The Movie 3-Piece Glow Stick Kit	Get ready to glow. This three-piece face, eye and lip kit will take you on a beauty adventure just like the Mane 6 as they explore the worlds beyond Equestria. Inspired by My Little Pony: The Movie, these illuminating balms provide an exciting highlight to sculpt and add depth to the whole face. Packed with sheer prismatic pigments in three hues, these multitasking sticks can be used on the lids, cheeks and lips to add a subtle shimmer to your best features. Just swipe on and tap into the skin on-the-go. The compact size fits easily into your makeup bag so you can carry one (or all three!) wherever you go. Let your Glow Stick light the way! Shade Descriptions:- Blissful (Holographic Iridescent Blue with Pink Shift) - Joyful (Iridescent White with Blue Lavender Shift - Cheerful (Iridescent Pink with Gold Shift)   	https://www.purcosmetics.com/my-little-pony-the-movie-collection-magic-of-friendship-3-piece-all-in-one-glow-stick-kit?utm_source=google_shopping	https://www.purcosmetics.com/media/catalog/product/e/y/eye_kit_1.jpg	https://www.purcosmetics.com/media/catalog/product/g/l/glow-stick-swatches-square.jpg,https://www.purcosmetics.com/media/catalog/product/g/l/glow-stick-swatches.jpg	22.00 USD	10.00 USD	2018-04-04T00:00:00-04:00/2020-03-05T23:59:59-05:00	in stock	0.11 lb	Pur Cosmetics	951927010	new	Pur Category > Makeup > Shop By Collection > My Little Pony: The Movie,Pur Category > Makeup > Kits,Pur Category > Makeup > Shop All	 	 	FALSE	 	847137031244	847137031244	951927010
951676030	 	Chisel Brush	The Chisel Brush is a professional makeup brush designed exclusively for the flawless application of PÜR's 4-in-1 Pressed Mineral Makeup Foundation; however, it also works well with other PÜR powders.	https://www.purcosmetics.com/chisel-brush-new?utm_source=google_shopping	https://www.purcosmetics.com/media/catalog/product/c/h/chisel-brush-2016-72dpi.jpg	 	23.00 USD	 	 	in stock	0.07 lb	Pur Cosmetics	951676030	new	Pur Category > Makeup > Brushes & Tools,Pur Category > Makeup > Shop All,Pur Category > Makeup	 	 	FALSE	 	847137017859	847137017859	951676030
951201010	 	Envious Brow Mask	What it is: A conditioning brow mask that helps the brows appear thicker and fuller. What it does: This nourishing brow mask helps improves the look of the brow. The formula is fortified with botanicals to help moisturize, condition and strengthen brows and help prevent damage and premature fallout. With continued use, brows will look fuller, healthier and more uniform. Key ingredients: Energy Complex | A combination of green tea, ginseng and B vitamins stimulate the skin’s metabolic renewal process.Biotinoyl Tripeptide-1 | Helps prevent hair follicle aging and protects against premature fallout  	https://www.purcosmetics.com/envious-brow-mask?utm_source=google_shopping	https://www.purcosmetics.com/media/catalog/product/e/n/envious_brow_1200x1200_1.jpg	 	24.00 USD	 	 	in stock	0.03 lb	Pur Cosmetics	951201010	new	Pur Category > Makeup > Eyes > Brows,Pur Category > Makeup > Eyes,Pur Category > Makeup > Shop All	 	 	FALSE	 	847137028275	847137028275	951201010
951814010	 	PÜR PRO X Etienne Ortega Eyeshadow Palette	About Etienne Ortega: Mexico-born and Los Angeles-based celebrity hair and makeup artist Etienne Ortega (@etienneortega) is renowned for his socialite and A-list clientele which includes the Kardashians, the Jenners, Kate Beckinsale, Christina Aguilera and Nicki Minaj to name a few. His signature glamazon looks have graced the pages of countless publications such as Vogue, Allure and Glamour and has secured his place as one of the most talented artists in the industry. What it is: Etienne partnered with PÜR to curate a PÜR PRO eye shadow collection that evokes glamourous looks for global skin tones. This must-have palette is sure to entice the novice and the pro. What it does: This palette features 18 blendable and buildable shades that step up your basics for every day wear to red carpet ready. With warm nudes, subtle shimmers and cool ultra-matte shades, this is a palette that you’ll reach for again and again. This palette contains: Stripped (nude shimmer), Legend (tan shimmer),	https://www.purcosmetics.com/pur-pro-eyeshadow-palette-etienne-ortega?utm_source=google_shopping	https://www.purcosmetics.com/media/catalog/product/p/u/purproetienne_open_72dpi.jpg	https://www.purcosmetics.com/media/catalog/product/e/t/etienne_palette.jpg,https://www.purcosmetics.com/media/catalog/product/p/u/pur_jessica_face_3-7-web.jpg,https://www.purcosmetics.com/media/catalog/product/p/u/pur_dominique_3-32_web.jpg,https://www.purcosmetics.com/media/catalog/product/p/u/pur_jocelyn_face_3-4-web.jpg	42.00 USD	25.00 USD	2019-01-03T00:00:00-05:00/2020-03-05T23:59:59-05:00	in stock	0.55 lb	Pur Cosmetics	951814010	new	Pur Category > Makeup > Eyes > Eyeshadow,Pur Category > Makeup > Eyes,Pur Category > Makeup > Palettes	 	 	FALSE	 	847137028282	847137028282	951814010
951815010	 	Quick Pro Highlight Palette	What it is: Six large highlighters that give a lit-from-within to full strobe glow to the face and body. What it does: The soft-focus, mega-watt highlighting powders help blur imperfections, minimize pores and help restore the look of luminosity to the skin. Whether you want to add a healthy ethereal sheen to the skin or a “blind-the-world in seconds” beam, these versatile highlighters add dimension to any skin tone. This palette contains: Twilight (light pink frost), Sultry (warm light gold), Sunset (peach with gold shimmer), Starbright (champagne), Frostbitten (white gold), Gold Rush (yellow gold)	https://www.purcosmetics.com/quick-pro-highlight-palette?utm_source=google_shopping	https://www.purcosmetics.com/media/catalog/product/q/u/quick-pro-highlight-palette-1200x1200.jpg	https://www.purcosmetics.com/media/catalog/product/q/u/quickprohighlight_2.jpg,https://www.purcosmetics.com/media/catalog/product/m/i/miniquickprohighlight_fc_72dpi.jpg,https://www.purcosmetics.com/media/catalog/product/m/i/miniquickprohighlight_closed_300dpi.jpg	32.00 USD	18.00 USD	2018-03-15T00:00:00-04:00/2020-03-05T23:59:59-05:00	in stock	0.34 lb	Pur Cosmetics	951815010	new	Pur Category > Makeup > Shop By Collection > Quick Pro,Pur Category > Makeup > Cheeks > Highlighter,Pur Category > Makeup > Cheeks	 	 	FALSE	 	847137030315	847137030315	951815010
951920010	 	4-Piece Dual-Ended Eyeshadow & Eyeliner Kit	What it is: This four-piece, 2-in-1 eyeliner and shadow collection features complimentary shades that make for a quick, yet professional, transformation for any occasion. What it does: Smooth matte eye pencils define lids with precision and sultry shimmer eye shadows add playful charm. The portable, multitasking sticks helps you create eye-catching looks effortlessly. Built for quick and easy touch-ups on the go, getting the perfect eye look without a brush just got easier than ever. This kit contains: 4 eyeliner and eyeshadow duos in Masterpiece (black liner/champagne shadow), Phenomenon (grey liner/pink shadow), Prodigy (navy liner/ silver shadow), Cream of the Crop (brown liner/gold shadow)	https://www.purcosmetics.com/quick-pro-eyes-dual-ended-eyeshadow-eyeliner-kit?utm_source=google_shopping	https://www.purcosmetics.com/media/catalog/product/q/u/quick_pro_eyes_capoff_all_300dpi.jpg	https://www.purcosmetics.com/media/catalog/product/q/u/quickproeyes_fc_72dpi.jpg,https://www.purcosmetics.com/media/catalog/product/q/u/quick-pro-eyes-swatches.jpg,https://www.purcosmetics.com/media/catalog/product/q/u/quickproeye_swatches-all_72dpi.jpg	28.00 USD	20.00 USD	2018-12-14T00:00:00-05:00/2020-03-05T23:59:59-05:00	in stock	0.22 lb	Pur Cosmetics	951920010	new	Pur Category > Makeup > Eyes > Eyeliner,Pur Category > Makeup > Eyes > Eyeshadow,Pur Category > Makeup > Shop By Collection > Quick Pro	 	 	FALSE	 	847137029500	847137029500	951920010
951921010	 	3-Piece Berry Lip Kit	What it is: A trio of lip essentials that include a coordinating lip liner, lip gloss with attached mirror and light, and lipstick with attached mirror. What it does: It turns up the vamp and seals it with a kiss. Perfect your pout with these multitasking must-haves that allow you to update your look anywhere. The berry collection gives you versatility with a matte lip or a glossy shimmery look. It’s the perfect combination for a backseat makeover. This kit contains: Siren Lip Liner (deep berry), Forbidden Lipstick (deep berry) , Bitten Gloss (muted light pink)	https://www.purcosmetics.com/quick-pro-lips-berry?utm_source=google_shopping	https://www.purcosmetics.com/media/catalog/product/q/u/quickprolips_berry_products_72dpi.jpg	https://www.purcosmetics.com/media/catalog/product/i/m/img_3967.png,https://www.purcosmetics.com/media/catalog/product/q/u/quickprolips_fc_berry_72dpi.jpg,https://www.purcosmetics.com/media/catalog/product/i/m/img_3970.png	26.00 USD	18.00 USD	2018-12-14T00:00:00-05:00/2020-03-05T23:59:59-05:00	in stock	0.25 lb	Pur Cosmetics	951921010	new	Pur Category > Makeup > Shop By Collection > Quick Pro,Pur Category > Makeup > Lips,Pur Category > Makeup > Kits	 	 	FALSE	 	847137029524	847137029524	951921010
951921020	 	3-Piece Nude Lip Kit	What it is: A trio of lip essentials that include a coordinating lip liner, lip gloss with attached mirror and light, and lipstick with attached mirror. What it does: Makes going nude easier than ever. Perfect your pout with these multitasking must-haves that allow you to update your look anywhere. The nude collection gives you versatility with a matte lip or a glossy but not shimmery look that can be your everyday staple or the perfect complement to a smoky eye. This kit contains: Naked Lip Liner (light peachy pink), Stripped Lipstick (light peachy pink) , Birthday Suit (light peachy pink)  	https://www.purcosmetics.com/quick-pro-lips-nude?utm_source=google_shopping	https://www.purcosmetics.com/media/catalog/product/q/u/quickprolips_holidaylipkit_nude_72dpi.jpg	https://www.purcosmetics.com/media/catalog/product/i/m/img_3961.png,https://www.purcosmetics.com/media/catalog/product/p/u/pur-20170076done.jpg,https://www.purcosmetics.com/media/catalog/product/p/u/pur-20170304ok.jpg,https://www.purcosmetics.com/media/catalog/product/p/u/pur-20170284ok.jpg,https://www.purcosmetics.com/media/catalog/product/q/u/quickprolips_fc_nude_72dpi.jpg	26.00 USD	18.00 USD	2018-12-14T00:00:00-05:00/2020-03-05T23:59:59-05:00	out of stock	0.26 lb	Pur Cosmetics	951921020	new	Pur Category > Makeup > Shop By Collection > Quick Pro,Pur Category > Makeup > Lips,Pur Category > Makeup > Kits	 	 	FALSE	 	847137030216	847137030216	951921020
951922010	 	Fully Charged Mascara & Primer Kit	AS SEEN IN... BUSTLE • ALLURE What it is: A lash primer and mascara duo that’s powered by magnetic technology. What it does: Gives lashes high-definition volume with unbelievably lush length. That’s what attracts fans to the high-voltage Fully Charged mascara duo. Opposites attract when a "magnetic" polymer matrix wraps a positively charged elastic veil around each lash to instantly lift, separate and define for long-lasting performance. Plus, it doesn’t smudge, clump or make lashes feel brittle and damaged. It’s built to power your lashes up, not let them down. This kit contains: A lash primer and mascara. 	https://www.purcosmetics.com/fully-charged-mascara-lash-primer-kit?utm_source=google_shopping	https://www.purcosmetics.com/media/catalog/product/f/u/fully-charged-mascaraandprimer72dpi.jpg	https://www.purcosmetics.com/media/catalog/product/f/u/fullychargedmascara_primer-swatches-72dpi.jpg	18.00 USD	14.00 USD	 	in stock	0.19 lb	Pur Cosmetics	951922010	new	Pur Category > Makeup > Eyes > Mascara,Pur Category > Makeup > Shop By Collection > Quick Pro,Pur Category > Makeup > Eyes	 	 	FALSE	 	847137029548	847137029548	951922010
951925010	 	Glitters 5-Piece Eye Polish Kit	AS SEEN IN... POPSUGAR • BRIT.CO What it is: A high-pigment and high-glamour glitter eyeshadow with a built-in primer that lasts without creasing or fading. What it does: The unique 3-in-1 formula can be used as a primer, eyeshadow base and glittery top coat all-in-one. Use it for a glamorous one-and-done look or layer it on top of your favorite matte eye look for a head-turning update. The built-in applicator makes application easy for the girl on-the-go.  This collection contains: Namaslay (rose gold), Midnight Diamond (charcoal), Queenie (yellow gold), Lust (cranberry), OMG (brown with rainbow shimmer)	https://www.purcosmetics.com/quick-pro-glitters-5-piece-eye-polish-kit?utm_source=google_shopping	https://www.purcosmetics.com/media/catalog/product/q/u/quickproglitters_group2_300dpi.jpg	https://www.purcosmetics.com/media/catalog/product/p/u/pur-20170901ok-_1_.jpg,https://www.purcosmetics.com/media/catalog/product/g/l/glitterarmswatches_retouch_white_1200x1200.jpg,https://www.purcosmetics.com/media/catalog/product/p/u/pur-20170842ok.jpg,https://www.purcosmetics.com/media/catalog/product/q/u/quickproglitters_group_300dpi.jpg,https://www.purcosmetics.com/media/catalog/product/q/u/quickproglitters_swatches_72dpi.jpg,https://www.purcosmetics.com/media/catalog/product/q/u/quickproglitters_fc_72dpi.jpg	39.00 USD	25.00 USD	2018-03-21T00:00:00-04:00/2020-03-05T23:59:59-05:00	in stock	0.23 lb	Pur Cosmetics	951925010	new	Pur Category > Makeup > Shop By Collection > Quick Pro,Pur Category > Makeup > Eyes > Eyeshadow,Pur Category > Makeup > Eyes	 	 	FALSE	 	847137029609	847137029609	951925010
951926020	 	Quick Pro Portables Night Fantasy On-The-Go Lipstick & Eyeshadow	What it is: A set of two travel-size palettes containing eight eyeshadows and eight lip colors that are perfectly suited for a night out.What it does: This grab-and-go eyeshadow and lip set provides easy options to update your look on the go with blendable and buildable shades. Whether it’s a full eye look or a quick lip update, your new look fits in your pocket for a quick change. This palette contains: 2 palettes; 1 eyeshadow palette and 1 lipstick palette, including 8 shadows: Hush (pinky tan shimmer), Liar (matte tan),Goals (matte chocolate), Love Life (matte cranberry) , Secret (matte fresh vanilla), Hideaway (matte brick red/brown), Lit (gold shimmer), Admire (cranberry shimmer) 8 lip colors: Cranberry (fuschia berry), Mirage (warm brown), Glamp (rosy brown), Toasted (cinnamon), Paradise (peach), Mood (cool tan), True Story (light berry pink), Wine Time (deep red wine)	https://www.purcosmetics.com/quick-pro-portables-palettes-pair-night-fantasy?utm_source=google_shopping	https://www.purcosmetics.com/media/catalog/product/w/e/web_night_1000.jpg	https://www.purcosmetics.com/media/catalog/product/q/u/quick-pro-portables-night-fantasy-swatches.jpg,https://www.purcosmetics.com/media/catalog/product/q/u/quickproportables_nightfantasy-eyes_72dpi.jpg,https://www.purcosmetics.com/media/catalog/product/q/u/quickproportables_nightfantasy-lips_72dpi.jpg,https://www.purcosmetics.com/media/catalog/product/q/u/quickproportables_nightfantasy_fc_72dpi.jpg	14.00 USD	12.00 USD	2018-03-21T00:00:00-04:00/2020-03-05T23:59:59-05:00	in stock	0.17 lb	Pur Cosmetics	951926020	new	Pur Category > Makeup > Eyes > Eyeshadow,Pur Category > Makeup > Eyes,Pur Category > Makeup > Kits	 	 	FALSE	 	847137029630	847137029630	951926020
951926030	 	Quick Pro Portables Sculpt & Glow On-The-Go Contour and Highlight	What it is: A highlighting palette with three illuminating shades to add natural luminosity to the skin and a sculpt palette with two contour shades and a bronzer with a natural sheen to add dimension to your complexion. What it does: Highlights and defines your best features with light-reflecting highlighting powders and contour shades that allow you to chisel your features for the look of a slimmer nose, sculpted jawline and defined cheekbones. The finished look is always natural. Plus, the compact palettes make traveling with your secret beauty weapons easier to conceal. This kit contains: 1 highlighting palette including three shades and 1 contour palette including three shades. Sculpt shades include Silhouette (light brown), Go Figure (warm brown), Bronze (bronze shimmer). Glow shades include Slaycation (champagne), Goddess (rose gold), High Five (light bronze).	https://www.purcosmetics.com/quick-pro-portables-palettes-sculpt-glow?utm_source=google_shopping	https://www.purcosmetics.com/media/catalog/product/w/e/web_sculpt_web_retouch_1000x1000.jpg	https://www.purcosmetics.com/media/catalog/product/q/u/quickproportables_glow_72dpi_1.jpg,https://www.purcosmetics.com/media/catalog/product/q/u/quickproportables_sculpt_72dpi_1.jpg,https://www.purcosmetics.com/media/catalog/product/q/u/quickproportables_sculpt_glow_fc_72dpi_1.jpg,https://www.purcosmetics.com/media/catalog/product/q/u/quickproportables_sculpt_closed_72dpi_1.jpg,https://www.purcosmetics.com/media/catalog/product/q/u/quickproportables_glow_closed_72dpi_1.jpg	14.00 USD	12.00 USD	2018-04-06T00:00:00-04:00/2020-03-05T23:59:59-05:00	in stock	0.00 lb	Pur Cosmetics	951926030	new	Pur Category > Makeup > Cheeks,Pur Category > Makeup > Palettes,Pur Category > Makeup > Shop All	 	 	FALSE	 	847137029647	847137029647	951926030
11816	 	Sculpt A Brow	What it is: An all-in-one brow enhancer that helps you sculpt fuller brows. What it does: The cream-to-powder formula helps recreate the look of fuller brows by filling in sparse areas with rich pigment. The angled brush helps create hair-like definition for a natural look. This palette contains: A cream brow color and an enclosed angled brush. Key ingredients: Vitamin E and Rose Hip Oil | helps to condition skin and hair for healthier-looking brows	https://www.purcosmetics.com/sculpt-a-brow?utm_source=google_shopping	https://www.purcosmetics.com/media/catalog/product/s/c/sculptabrow_light_3pieces_72dpi_1.jpg	https://www.purcosmetics.com/media/catalog/product/s/c/sculpt-a-brow_2_bailey-1200x1200_1_2.jpg,https://www.purcosmetics.com/media/catalog/product/s/c/sculptabrow_light_swatch_72dpi_1.jpg,https://www.purcosmetics.com/media/catalog/product/s/c/sculptabrow_lightcapon_72dpi_1.jpg,https://www.purcosmetics.com/media/catalog/product/s/c/sculptabrow_medium_3pieces_72dpi_1.jpg,https://www.purcosmetics.com/media/catalog/product/s/c/sculpt-a-brow-1200x1200_1_2.jpg,https://www.purcosmetics.com/media/catalog/product/s/c/sculptabrow_medium_swatch_72dpi_1.jpg,https://www.purcosmetics.com/media/catalog/product/s/c/sculptabrow_medium_capon_72dpi_1.jpg,https://www.purcosmetics.com/media/catalog/product/s/c/sculptabrow_dark_3pieces_72dpi_1.jpg,https://www.purcosmetics.com/media/catalog/product/s/c/sculptabrow_dark_swatch_72dpi_1.jpg	24.00 USD	 	 	in stock	0.03 lb	Pur Cosmetics	11816	new	Pur Category > Makeup > Eyes > Brows,Pur Category > Makeup > Eyes,Pur Category > Makeup > Shop All	 	 	FALSE	 	 	 	11816
951554020	11816	Sculpt A Brow in Medium	What it is: An all-in-one brow enhancer that helps you sculpt fuller brows. What it does: The cream-to-powder formula helps recreate the look of fuller brows by filling in sparse areas with rich pigment. The angled brush helps create hair-like definition for a natural look. This palette contains: A cream brow color and an enclosed angled brush. Key ingredients: Vitamin E and Rose Hip Oil | helps to condition skin and hair for healthier-looking brows	https://www.purcosmetics.com/sculpt-a-brow?utm_source=google_shopping	https://www.purcosmetics.com/media/catalog/product/s/c/sculptabrow_medium_capoff_72dpi.jpg	https://www.purcosmetics.com/media/catalog/product/s/c/sculpt-a-brow-1200x1200_1.jpg,https://www.purcosmetics.com/media/catalog/product/s/c/sculpt-a-brow_2_bailey-1200x1200_1.jpg,https://www.purcosmetics.com/media/catalog/product/s/c/sculptabrow_medium_swatch_72dpi.jpg,https://www.purcosmetics.com/media/catalog/product/s/c/sculptabrow_medium_3pieces_72dpi.jpg,https://www.purcosmetics.com/media/catalog/product/s/c/sculptabrow_medium_capon_72dpi.jpg	24.00 USD	 	 	in stock	0.03 lb	Pur Cosmetics	951554020	new	Pur Category > Makeup > Eyes > Brows,Pur Category > Makeup > Eyes,Pur Category > Makeup > Shop All	 	 	FALSE	 	847137028251	847137028251	951554020
951554030	11816	Sculpt A Brow in Dark	What it is: An all-in-one brow enhancer that helps you sculpt fuller brows. What it does: The cream-to-powder formula helps recreate the look of fuller brows by filling in sparse areas with rich pigment. The angled brush helps create hair-like definition for a natural look. This palette contains: A cream brow color and an enclosed angled brush. Key ingredients: Vitamin E and Rose Hip Oil | helps to condition skin and hair for healthier-looking brows	https://www.purcosmetics.com/sculpt-a-brow?utm_source=google_shopping	https://www.purcosmetics.com/media/catalog/product/s/c/sculptabrow_dark_capoff_72dpi.jpg	https://www.purcosmetics.com/media/catalog/product/s/c/sculpt-a-brow-1200x1200_1_1.jpg,https://www.purcosmetics.com/media/catalog/product/s/c/sculpt-a-brow_2_bailey-1200x1200_1_1.jpg,https://www.purcosmetics.com/media/catalog/product/s/c/sculptabrow_dark_swatch_72dpi.jpg,https://www.purcosmetics.com/media/catalog/product/s/c/sculptabrow_dark_3pieces_72dpi.jpg,https://www.purcosmetics.com/media/catalog/product/s/c/sculptabrow_dark_capon_72dpi.jpg	24.00 USD	 	 	in stock	0.03 lb	Pur Cosmetics	951554030	new	Pur Category > Makeup > Eyes > Brows,Pur Category > Makeup > Eyes,Pur Category > Makeup > Shop All	 	 	FALSE	 	847137028268	847137028268	951554030
951554010	11816	Sculpt A Brow in Light	What it is: An all-in-one brow enhancer that helps you sculpt fuller brows. What it does: The cream-to-powder formula helps recreate the look of fuller brows by filling in sparse areas with rich pigment. The angled brush helps create hair-like definition for a natural look. This palette contains: A cream brow color and an enclosed angled brush. Key ingredients: Vitamin E and Rose Hip Oil | helps to condition skin and hair for healthier-looking brows	https://www.purcosmetics.com/sculpt-a-brow?utm_source=google_shopping	https://www.purcosmetics.com/media/catalog/product/s/c/sculptabrow_light_capoff_72dpi.jpg	https://www.purcosmetics.com/media/catalog/product/s/c/sculpt-a-brow-1200x1200.jpg,https://www.purcosmetics.com/media/catalog/product/s/c/sculpt-a-brow_2_bailey-1200x1200.jpg,https://www.purcosmetics.com/media/catalog/product/s/c/sculptabrow_light_swatch_72dpi.jpg,https://www.purcosmetics.com/media/catalog/product/s/c/sculptabrow_light_3pieces_72dpi.jpg,https://www.purcosmetics.com/media/catalog/product/s/c/sculptabrow_lightcapon_72dpi.jpg	24.00 USD	 	 	in stock	0.03 lb	Pur Cosmetics	951554010	new	Pur Category > Makeup > Eyes > Brows,Pur Category > Makeup > Eyes,Pur Category > Makeup > Shop All	 	 	FALSE	 	847137028244	847137028244	951554010
11817	 	Quick Draw Concealer Pencil	What it is: A concealer pencil to target and cover imperfections with precision. What it does: Camouflage stubborn blemishes that can be hard to cover without caking on traditional concealers. This concealer pencil targets imperfections with an ultra-pigmented, full-coverage formula its fine tip also allows for “focused concealing” to hide even the smallest blemishes. This must-have pencil is also enriched with skin-perfecting Ceretin Complex so this concealer also helps correct each blemish it covers by coating it with hydrating, brightening, energizing and age-defying skin care that helps skin look its best while it heals. Plus, it contains antioxidant-rich green tea to protect the skin from further environmental damage. It’s long-lasting matte finish means that your blemishes won’t make an appearance midday.	https://www.purcosmetics.com/quick-draw-concealer-pencils?utm_source=google_shopping	https://www.purcosmetics.com/media/catalog/product/q/u/quickdraw_concealerpencil_porcelain_capon_72dpi.jpg	https://www.purcosmetics.com/media/catalog/product/q/u/quickdraw_concealerpencil_porcelain_capoff_72dpi.jpg,https://www.purcosmetics.com/media/catalog/product/q/u/quickdraw_concealerpencil_medium_swatch_capoff_72dpi_1.jpg,https://www.purcosmetics.com/media/catalog/product/q/u/quickdraw_concealerpencil_dark_capon_72dpi_1.jpg,https://www.purcosmetics.com/media/catalog/product/q/u/quickdraw_concealerpencil_dark_swatch_capoff_72dpi_1.jpg,https://www.purcosmetics.com/media/catalog/product/q/u/quickdraw_concealerpencil_dark_capoff_72dpi_1.jpg,https://www.purcosmetics.com/media/catalog/product/q/u/quickdraw_concealerpencil_deep_capon_72dpi_1_1.jpg,https://www.purcosmetics.com/media/catalog/product/q/u/quickdraw_concealerpencil_deep_swatch_capoff_72dpi_1_1.jpg,https://www.purcosmetics.com/media/catalog/product/q/u/quickdraw_concealerpencil_deep_capoff_72dpi_1_1.jpg,https://www.purcosmetics.com/media/catalog/product/q/u/quickdraw_concealerpencil_medium_capon_72dpi_1.jpg	19.00 USD	 	 	in stock	3.96 lb	Pur Cosmetics	11817	new	Pur Category > Makeup > Face > Concealer,Pur Category > Makeup > Face,Pur Category > Makeup > Shop All	 	 	FALSE	 	 	 	11817
951241020	11817	Quick Draw Concealer Pencil in Light	Target imperfections with this ultra-pigmented, full-coverage concealer pencil. The fine tip allows for “focused concealing” to hide even the smallest blemishes. Enriched with skin-perfecting Ceretin Complex, this concealer also helps correct each blemish it covers.	https://www.purcosmetics.com/quick-draw-concealer-pencils?utm_source=google_shopping	https://www.purcosmetics.com/media/catalog/product/q/u/quickdraw_concealerpencil_light_capon_72dpi.jpg	https://www.purcosmetics.com/media/catalog/product/q/u/quickdraw_concealerpencil_light_swatch_capoff_72dpi.jpg,https://www.purcosmetics.com/media/catalog/product/q/u/quickdraw_concealerpencil_light_capoff_72dpi.jpg	19.00 USD	 	 	in stock	3.96 lb	Pur Cosmetics	951241020	new	Pur Category > Makeup > Face > Concealer,Pur Category > Makeup > Face,Pur Category > Makeup > Shop All	 	 	FALSE	 	847137027988	847137027988	951241020
951241030	11817	Quick Draw Concealer Pencil in Medium	What it is: A concealer pencil to target and cover imperfections with precision. What it does: Camouflage stubborn blemishes that can be hard to cover without caking on traditional concealers. This concealer pencil targets imperfections with an ultra-pigmented, full-coverage formula its fine tip also allows for “focused concealing” to hide even the smallest blemishes. This must-have pencil is also enriched with skin-perfecting Ceretin Complex so this concealer also helps correct each blemish it covers by coating it with hydrating, brightening, energizing and age-defying skin care that helps skin look its best while it heals. Plus, it contains antioxidant-rich green tea to protect the skin from further environmental damage. It’s long-lasting matte finish means that your blemishes won’t make an appearance midday.	https://www.purcosmetics.com/quick-draw-concealer-pencils?utm_source=google_shopping	https://www.purcosmetics.com/media/catalog/product/q/u/quickdraw_concealerpencil_medium_capon_72dpi.jpg	https://www.purcosmetics.com/media/catalog/product/q/u/quickdraw_concealerpencil_medium_swatch_capoff_72dpi.jpg,https://www.purcosmetics.com/media/catalog/product/q/u/quickdraw_concealerpencil_medium_capoff_72dpi.jpg	19.00 USD	 	 	in stock	3.96 lb	Pur Cosmetics	951241030	new	Pur Category > Makeup > Face > Concealer,Pur Category > Makeup > Face,Pur Category > Makeup > Shop All	 	 	FALSE	 	847137027995	847137027995	951241030
951241040	11817	Quick Draw Concealer Pencil in Tan	What it is: A concealer pencil to target and cover imperfections with precision. What it does: Camouflage stubborn blemishes that can be hard to cover without caking on traditional concealers. This concealer pencil targets imperfections with an ultra-pigmented, full-coverage formula its fine tip also allows for “focused concealing” to hide even the smallest blemishes. This must-have pencil is also enriched with skin-perfecting Ceretin Complex so this concealer also helps correct each blemish it covers by coating it with hydrating, brightening, energizing and age-defying skin care that helps skin look its best while it heals. Plus, it contains antioxidant-rich green tea to protect the skin from further environmental damage. It’s long-lasting matte finish means that your blemishes won’t make an appearance midday.	https://www.purcosmetics.com/quick-draw-concealer-pencils?utm_source=google_shopping	https://www.purcosmetics.com/media/catalog/product/q/u/quickdraw_concealerpencil_dark_capon_72dpi.jpg	https://www.purcosmetics.com/media/catalog/product/q/u/quickdraw_concealerpencil_dark_swatch_capoff_72dpi.jpg,https://www.purcosmetics.com/media/catalog/product/q/u/quickdraw_concealerpencil_dark_capoff_72dpi.jpg	19.00 USD	 	 	in stock	3.96 lb	Pur Cosmetics	951241040	new	Pur Category > Makeup > Face > Concealer,Pur Category > Makeup > Face,Pur Category > Makeup > Shop All	 	 	FALSE	 	847137028008	847137028008	951241040
951241050	11817	Quick Draw Concealer Pencil in Dark	What it is: A concealer pencil to target and cover imperfections with precision. What it does: Camouflage stubborn blemishes that can be hard to cover without caking on traditional concealers. This concealer pencil targets imperfections with an ultra-pigmented, full-coverage formula its fine tip also allows for “focused concealing” to hide even the smallest blemishes. This must-have pencil is also enriched with skin-perfecting Ceretin Complex so this concealer also helps correct each blemish it covers by coating it with hydrating, brightening, energizing and age-defying skin care that helps skin look its best while it heals. Plus, it contains antioxidant-rich green tea to protect the skin from further environmental damage. It’s long-lasting matte finish means that your blemishes won’t make an appearance midday.	https://www.purcosmetics.com/quick-draw-concealer-pencils?utm_source=google_shopping	https://www.purcosmetics.com/media/catalog/product/q/u/quickdraw_concealerpencil_dark_capon_72dpi_2.jpg	https://www.purcosmetics.com/media/catalog/product/q/u/quickdraw_concealerpencil_dark_swatch_capoff_72dpi_2.jpg,https://www.purcosmetics.com/media/catalog/product/q/u/quickdraw_concealerpencil_dark_capoff_72dpi_2.jpg	19.00 USD	 	 	in stock	3.96 lb	Pur Cosmetics	951241050	new	Pur Category > Makeup > Face > Concealer,Pur Category > Makeup > Face,Pur Category > Makeup > Shop All	 	 	FALSE	 	847137028015	847137028015	951241050
951241060	11817	Quick Draw Concealer Pencil in Deep	What it is: A concealer pencil to target and cover imperfections with precision. What it does: Camouflage stubborn blemishes that can be hard to cover without caking on traditional concealers. This concealer pencil targets imperfections with an ultra-pigmented, full-coverage formula its fine tip also allows for “focused concealing” to hide even the smallest blemishes. This must-have pencil is also enriched with skin-perfecting Ceretin Complex so this concealer also helps correct each blemish it covers by coating it with hydrating, brightening, energizing and age-defying skin care that helps skin look its best while it heals. Plus, it contains antioxidant-rich green tea to protect the skin from further environmental damage. It’s long-lasting matte finish means that your blemishes won’t make an appearance midday.	https://www.purcosmetics.com/quick-draw-concealer-pencils?utm_source=google_shopping	https://www.purcosmetics.com/media/catalog/product/q/u/quickdraw_concealerpencil_deep_capon_72dpi_1.jpg	https://www.purcosmetics.com/media/catalog/product/q/u/quickdraw_concealerpencil_deep_swatch_capoff_72dpi_1.jpg,https://www.purcosmetics.com/media/catalog/product/q/u/quickdraw_concealerpencil_deep_capoff_72dpi_1.jpg	19.00 USD	 	 	in stock	3.96 lb	Pur Cosmetics	951241060	new	Pur Category > Makeup > Face > Concealer,Pur Category > Makeup > Face,Pur Category > Makeup > Shop All	 	 	FALSE	 	847137028022	847137028022	951241060
951241010	11817	Quick Draw Concealer Pencil in Porcelain	Target imperfections with this ultra-pigmented, full-coverage concealer pencil. The fine tip allows for “focused concealing” to hide even the smallest blemishes. Enriched with skin-perfecting Ceretin Complex, this concealer also helps correct each blemish it covers.	https://www.purcosmetics.com/quick-draw-concealer-pencils?utm_source=google_shopping	https://www.purcosmetics.com/media/catalog/product/q/u/quickdraw_concealerpencil_porcelain_capon_72dpi_1.jpg	https://www.purcosmetics.com/media/catalog/product/q/u/quickdraw_concealerpencil_porcelain_swatch_capoff_72dpi.jpg,https://www.purcosmetics.com/media/catalog/product/q/u/quickdraw_concealerpencil_porcelain_capoff_72dpi_1.jpg	19.00 USD	 	 	in stock	3.96 lb	Pur Cosmetics	951241010	new	Pur Category > Makeup > Face > Concealer,Pur Category > Makeup > Face,Pur Category > Makeup > Shop All	 	 	FALSE	 	847137027971	847137027971	951241010
951125000	 	Holographic Hydrating Sheet Mask Set	What it is: A two-piece holographic sheet mask that helps lock in key ingredients and moisturizers with foil for optimal results. What it does: Step up your sheet mask game. It instantly hydrates, refreshes and brightens the appearance of your complexion with skin-rejuvenating ingredients that don’t lose effectiveness due to oxidation or evaporation. This foil sheet masks helps concentrated ingredients effectively penetrate deeper for visibly refreshed, brighter and plumper-looking skin. You won’t believe the results. This set contains: 6 sheet masks Key Ingredients:Aloe & Vitamin E | helps soothe skin and helps reduce the appearance of rednessVitamin B Complex | helps strengthen and moisturize skin Sodium Hyaluronate | attracts moisture to skin to hydrate and plump skin for a softer and firmer appearance Vitamin C | helps brighten skin and reduce the look of hyperpigmentation Amino Acid & Peptide Complex | Helps energizes and rejuvenates skin	https://www.purcosmetics.com/quick-pro-holographic-hydrating-sheet-masks?utm_source=google_shopping	https://www.purcosmetics.com/media/catalog/product/q/u/quickpromask_fc_mask_72dpi.jpg	 	36.00 USD	20.00 USD	2018-03-21T00:00:00-04:00/2020-03-05T23:59:59-05:00	in stock	29.96 lb	Pur Cosmetics	951125000	new	Pur Category > Makeup > Shop By Collection > Quick Pro,Pur Category > Skincare > Masks,Pur Category > Skincare > Kits	 	 	FALSE	 	847137031985	847137031985	951125000
951692110	 	PRO Eyelash Glue	What it is: A fast-drying eyelash glue designed to work seamlessly with PÜR  PRO 3D Silk Cruelty-Free Eyelashes. What it does: The ultra-thin brush applicator helps to apply just the right amount of glue to your lash bands so they don’t look sloppy at the lash line. The clear adhesive is flexible and is perfect for beginners or the seasoned professional. The gentle and cruelty-free glue is safe for contact wearers, but durable enough to keep your lashes in place all day without needing to reapply.	https://www.purcosmetics.com/pur-pro-eyelash-glue?utm_source=google_shopping	https://www.purcosmetics.com/media/catalog/product/p/u/purproeyelashglue_72dpi.jpg	https://www.purcosmetics.com/media/catalog/product/b/o/bombshell_1.jpg	8.00 USD	 	 	in stock	0.03 lb	Pur Cosmetics	951692110	new	Pur Category > Makeup > Eyes > Eyelashes,Pur Category > Makeup > Eyes,Pur Category > Makeup > Shop All	 	 	FALSE	 	847137031039	847137031039	951692110
951790067	 	Dramatic Lash Mascara Trio	This trio of mascaras gives you a dramatic lash for every occasion. Lengthening, volumizing and waterproof formulas give you the on-the-go options you desire.	https://www.purcosmetics.com/dramatic-effects-lash-trio?utm_source=google_shopping	https://www.purcosmetics.com/media/catalog/product/d/r/dramatic-effects-lash-trio-kit.jpg	https://www.purcosmetics.com/media/catalog/product/s/a/sale_dramatic-effects-lash-trio_hover.jpg	36.00 USD	12.00 USD	2017-11-07T00:00:00-05:00/2020-03-05T23:59:59-05:00	in stock	0.16 lb	Pur Cosmetics	951790067	new	Pur Category > Makeup > Eyes,Pur Category > Makeup > Kits,Pur Category > Makeup > Shop All	 	 	FALSE	 	847137018726	847137018726	951790067
951790160	 	Try-Me Primer Kit	What it is: A foursome of travel-size face primers to visibly correct and perfect your complexion. What it does: This travel set includes the Correcting Primer Prep & Perfect that instantly reduces the appearance of pores and creates a flawless, uniform skin tone. Correcting Primer Hydrate & Balance is an oil-free, silicone-free primer that helps provide 72 hours of deep hydration to the skin while keeping the skin matte. Correcting Primer Redness Reducer offsets the look of irritation with its green hue while instantly reducing the appearance of pores and brightening the complexion. Correcting Primer Illuminate & Glow instantly adds a dose of brilliance to dull skin for added luminosity.  This set contains:- 0.3 oz/ 10 mL Travel Size Mini Correcting Primer Prep & Perfect- 0.3 oz/ 10 mL Travel Size Mini Correcting Primer Hydrate & Balance- 0.3 oz/ 10 mL Travel Size Mini Correcting Primer Redness Reducer- 0.3 oz/ 10 mL Travel Size Mini Correcting Primer Illuminate & Glow	https://www.purcosmetics.com/4-piece-travel-primer-set?utm_source=google_shopping	https://www.purcosmetics.com/media/catalog/product/p/r/primer-kit-1000x1000.jpg	 	48.00 USD	10.00 USD	2017-11-07T00:00:00-05:00/2020-03-05T23:59:59-05:00	in stock	0.15 lb	Pur Cosmetics	951790160	new	Pur Category > Makeup > Kits,Pur Category > Makeup > Shop All,Pur Category > Sale	 	 	FALSE	 	847137017354	847137017354	951790160
951758010	 	Let It Glow 3-Piece Bronze, Blush & Highlight Trio	What it is: A 3-piece bronze, blush and brightening kit to highlight, sculpt and create a rosy glow. What it does: This trio features fresh color for the face and cheeks. This holiday exclusive kit makes it easy to highlight your natural features, get a gorgeous touch of sun and give your cheeks a playful, rosy glow. This set includes a highlighter in Glisten & Glow, a bronzer in Naughty & Nice, and a blush Sugar & Spice. What is included: Let it Glow Trio contains Bronzer in Naughty & Nice (0.17oz/ 4.8g), Highlighter in Glisten & Glow (0.17oz/ 4.8g) and Blush in Sugar & Spice (0.17oz/ 4.8g).	https://www.purcosmetics.com/let-it-glow-3-piece-bronze-blush-highlight-trio?utm_source=google_shopping	https://www.purcosmetics.com/media/catalog/product/l/e/let-it-glow-1000x1000_new.jpg	https://www.purcosmetics.com/media/catalog/product/l/e/letitglow_carton.jpg	39.00 USD	12.00 USD	2017-12-02T00:00:00-05:00/2020-03-05T23:59:59-05:00	in stock	0.21 lb	Pur Cosmetics	951758010	new	Pur Category > Makeup > Shop All,Pur Category > Makeup > Cheeks,Pur Category > Sale	 	 	FALSE	 	847137012991	847137012991	951758010
11818	 	4-in-1 Tinted Moisturizer Mini	Your moisturizer, primer, foundation and SPF 20 all in one! This innovative 4-in-1 formula infuses the skin with powerful hydrators and proven correctives, including sodium hyaluronate and Pur's exclusive Ceretin Complex a one-of-a-kind ingredient engineered to radically renew the skin without irritation. Use it alone for a one-step, ultra-natural complexion or as a hydrating, broad-spectrum base for mineral makeup application. Vegan friendly. Paraben-Free.	https://www.purcosmetics.com/4-in-1-tinted-moisturizer-mini?utm_source=google_shopping	https://www.purcosmetics.com/media/catalog/product/4/i/4in1_mineral_tinted_moisturizer_sample_2_2.jpg	https://www.purcosmetics.com/media/catalog/product/4/i/4in1_mineral_tinted_moisturizer_sample_2_1_1.jpg,https://www.purcosmetics.com/media/catalog/product/4/i/4in1_mineral_tinted_moisturizer_sample_2_2_1.jpg,https://www.purcosmetics.com/media/catalog/product/4/i/4in1_mineral_tinted_moisturizer_sample_2_3.jpg,https://www.purcosmetics.com/media/catalog/product/4/-/4-in-1-mineral-tinted-moisturizer-dark-swatch_1.jpg,https://www.purcosmetics.com/media/catalog/product/4/-/4-in-1-mineral-tinted-moisturizer-tan-swatch_1_.jpg,https://www.purcosmetics.com/media/catalog/product/4/-/4-in-1-mineral-tinted-moisturizer-light-swatch_1.jpg,https://www.purcosmetics.com/media/catalog/product/4/-/4-in-1-mineral-tinted-moisturizer-medium-swatch_1.jpg	15.00 USD	 	 	in stock	 	Pur Cosmetics	11818	new	Pur Category > Makeup > Minis,Pur Category > Collections > Travel Size	 	 	FALSE	 	 	 	11818
11819	 	Shake & Bake Powder-to-Cream Under Eye Concealer	What it is: A revolutionary powder-to-cream under eye concealer.  What it does: Conceal and set in one step! Say goodbye to the hassle of setting, waiting and baking. This innovative Shake & Bake concealer melts into the skin to mask imperfections and sets to a smooth, long-lasting, crease-free finish that doesn’t cake. Translucent powder is built into the innovative formula, so the look of dark circles and blemishes fade away. The formula—a combination of green tea, ginseng and B vitamins along with our proprietary age-defying Ceretin Complex that helps stimulate and lift skin’s appearance while helping to absorb excess oil. The result is a smooth and creaseless finish that lasts for hours and won't settle into fine lines. A mini, flat-edge Contour Blending Sponge is included for easy application. Simply blend and go. Your makeup routine just got shorter. 	https://www.purcosmetics.com/shake-and-bake-powder-to-cream-under-eye-concealer?utm_source=google_shopping	https://www.purcosmetics.com/media/catalog/product/s/h/shake-bake-and-sponge.jpg	https://www.purcosmetics.com/media/catalog/product/s/h/shake-bake-cream-med_1.jpg,https://www.purcosmetics.com/media/catalog/product/s/h/shake-bake-light_1.jpg,https://www.purcosmetics.com/media/catalog/product/s/h/shake-bake-dark_1.jpg,https://www.purcosmetics.com/media/catalog/product/s/h/shake-bake-sponge_2_1.jpg,https://www.purcosmetics.com/media/catalog/product/s/h/shake-bake-sponge_3.jpg,https://www.purcosmetics.com/media/catalog/product/s/h/shake-bake-sponge_1_1.jpg	26.00 USD	 	 	in stock	0.05 lb	Pur Cosmetics	11819	new	Pur Category > Makeup > Face > Concealer,Pur Category > Makeup > Face,Pur Category > Makeup > Shop All	 	 	FALSE	 	 	 	11819
951800110	11819	Shake & Bake Powder-to-Cream Under Eye Concealer in Light	What it is: A revolutionary powder-to-cream under eye concealer.  What it does: Conceal and set in one step! Say goodbye to the hassle of setting, waiting and baking. This innovative Shake & Bake concealer melts into the skin to mask imperfections and sets to a smooth, long-lasting, crease-free finish that doesn’t cake. Translucent powder is built into the innovative formula, so the look of dark circles and blemishes fade away. The formula—a combination of green tea, ginseng and B vitamins along with our proprietary age-defying Ceretin Complex that helps stimulate and lift skin’s appearance while helping to absorb excess oil. The result is a smooth and creaseless finish that lasts for hours and won't settle into fine lines. A mini, flat-edge Contour Blending Sponge is included for easy application. Simply blend and go. Your makeup routine just got shorter. 	https://www.purcosmetics.com/shake-and-bake-powder-to-cream-under-eye-concealer?utm_source=google_shopping	https://www.purcosmetics.com/media/catalog/product/s/h/shake-bake-light.jpg	https://www.purcosmetics.com/media/catalog/product/s/h/shake-bake-swatch-light.jpg,https://www.purcosmetics.com/media/catalog/product/s/h/shake-bake-sponge.jpg	26.00 USD	 	 	in stock	0.05 lb	Pur Cosmetics	951800110	new	Pur Category > Makeup > Face > Concealer,Pur Category > Makeup > Face,Pur Category > Makeup > Shop All	 	 	FALSE	 	847137028091	847137028091	951800110
951800120	11819	Shake & Bake Powder-to-Cream Under Eye Concealer in Medium	What it is: A revolutionary powder-to-cream under eye concealer.  What it does: Conceal and set in one step! Say goodbye to the hassle of setting, waiting and baking. This innovative Shake & Bake concealer melts into the skin to mask imperfections and sets to a smooth, long-lasting, crease-free finish that doesn’t cake. Translucent powder is built into the innovative formula, so the look of dark circles and blemishes fade away. The formula—a combination of green tea, ginseng and B vitamins along with our proprietary age-defying Ceretin Complex that helps stimulate and lift skin’s appearance while helping to absorb excess oil. The result is a smooth and creaseless finish that lasts for hours and won't settle into fine lines. A mini, flat-edge Contour Blending Sponge is included for easy application. Simply blend and go. Your makeup routine just got shorter. 	https://www.purcosmetics.com/shake-and-bake-powder-to-cream-under-eye-concealer?utm_source=google_shopping	https://www.purcosmetics.com/media/catalog/product/s/h/shake-bake-cream-med.jpg	https://www.purcosmetics.com/media/catalog/product/a/p/application-on-face_2.jpg,https://www.purcosmetics.com/media/catalog/product/s/h/shake-bake-swatch-medium.jpg,https://www.purcosmetics.com/media/catalog/product/s/h/shake-bake-sponge_1.jpg	26.00 USD	 	 	in stock	0.05 lb	Pur Cosmetics	951800120	new	Pur Category > Makeup > Face > Concealer,Pur Category > Makeup > Face,Pur Category > Makeup > Shop All	 	 	FALSE	 	847137028107	847137028107	951800120
951800130	11819	Shake & Bake Powder-to-Cream Under Eye Concealer in Dark	What it is: A revolutionary powder-to-cream under eye concealer.  What it does: Conceal and set in one step! Say goodbye to the hassle of setting, waiting and baking. This innovative Shake & Bake concealer melts into the skin to mask imperfections and sets to a smooth, long-lasting, crease-free finish that doesn’t cake. Translucent powder is built into the innovative formula, so the look of dark circles and blemishes fade away. The formula—a combination of green tea, ginseng and B vitamins along with our proprietary age-defying Ceretin Complex that helps stimulate and lift skin’s appearance while helping to absorb excess oil. The result is a smooth and creaseless finish that lasts for hours and won't settle into fine lines. A mini, flat-edge Contour Blending Sponge is included for easy application. Simply blend and go. Your makeup routine just got shorter. 	https://www.purcosmetics.com/shake-and-bake-powder-to-cream-under-eye-concealer?utm_source=google_shopping	https://www.purcosmetics.com/media/catalog/product/s/h/shake-bake-dark.jpg	https://www.purcosmetics.com/media/catalog/product/s/h/shake-bake-swatch-dark.jpg,https://www.purcosmetics.com/media/catalog/product/s/h/shake-bake-sponge_2.jpg	26.00 USD	 	 	in stock	0.05 lb	Pur Cosmetics	951800130	new	Pur Category > Makeup > Face > Concealer,Pur Category > Makeup > Face,Pur Category > Makeup > Shop All	 	 	FALSE	 	847137028114	847137028114	951800130
11820	 	Disappearing Act Concealer Mini	What it is: 4-in-1 cream concealer mini  What it does: Conceals, brightens, clarifies and is packed with age-defying ingredients all-in-one! Disappearing Act Concealer Mini covers lines, dark circles, and blemishes. Easily blendable and buildable, this mini concealer brightens, balances and lifts the skin's appearance with minimal effort. 	https://www.purcosmetics.com/disappearing-act-concealer-mini?utm_source=google_shopping	https://www.purcosmetics.com/media/catalog/product/d/i/disappearing-act-light.jpg	https://www.purcosmetics.com/media/catalog/product/d/i/disappearing-act-concealer-light-swatch-72dpi.jpg,https://www.purcosmetics.com/media/catalog/product/d/i/disappearing-act-concealer-tan-swatch-72dpi.jpg,https://www.purcosmetics.com/media/catalog/product/d/i/disappearing-act-concealer-dark-swatch-72dpinb.jpg,https://www.purcosmetics.com/media/catalog/product/d/i/disappearing-act-medium.jpg,https://www.purcosmetics.com/media/catalog/product/d/i/disappearing-act-dark.jpg	15.00 USD	 	 	in stock	0.03 lb	Pur Cosmetics	11820	new	Pur Category > Collections > Travel Size,Pur Category > Makeup > Minis,Pur Category	 	 	FALSE	 	 	 	11820
851169030	11820	Disappearing Act Concealer Mini in Tan	Conceal & Correct This is you concealer, spot brightener, problem skin clarifier and anti-aging skincare all-in-one! Disappearing Act covers unsightly lines, dark circles and blemishes. Easily blendable and buildable, Disappearing Act cream concealer brightens, balances and lifts the skin's appearance with minimal effort.	https://www.purcosmetics.com/disappearing-act-concealer-mini?utm_source=google_shopping	https://www.purcosmetics.com/media/catalog/product/d/i/disactmini_tan_1_2.jpg	https://www.purcosmetics.com/media/catalog/product/d/i/disappearing-act-concealer-tan-swatch_2.jpg	15.00 USD	 	 	in stock	0.03 lb	Pur Cosmetics	851169030	new	Pur Category > Collections > Travel Size,Pur Category > Makeup > Minis,Pur Category	 	 	FALSE	 	847137020972	847137020972	851169030
851169040	11820	Disappearing Act Concealer Mini in Dark	Conceal & Correct This is you concealer, spot brightener, problem skin clarifier and anti-aging skincare all-in-one! Disappearing Act covers unsightly lines, dark circles and blemishes. Easily blendable and buildable, Disappearing Act cream concealer brightens, balances and lifts the skin's appearance with minimal effort.	https://www.purcosmetics.com/disappearing-act-concealer-mini?utm_source=google_shopping	https://www.purcosmetics.com/media/catalog/product/d/i/disactmini_dark_1_2.jpg	https://www.purcosmetics.com/media/catalog/product/d/i/disappearing-act-concealer-dark-swatch_1.jpg	15.00 USD	 	 	in stock	0.03 lb	Pur Cosmetics	851169040	new	Pur Category > Collections > Travel Size,Pur Category > Makeup > Minis,Pur Category	 	 	FALSE	 	847137021009	847137021009	851169040
951392010	 	Shake & Boost Powder-to-Cream Multivitamin Booster	What it is: A powder-to-cream formula that gives concealers, foundations, and skincare a boost of multivitamins. What it does: This magical formula helps minimize the look of pores, improve the appearance of fine lines, dark spots and an uneven complexion with a shake of a wrist. Featuring vitamins B and C as well as our age-defying Ceretin® Complex, your skin has never looked or felt better. What it's formulated without:- Animal testing- Animal byproducts or derivatives- Gluten- Parabens- Fragrance- Talc  This product contains an alpha hydroxy acid (AHA) that may increase your skin's sensitivity to the sun and particularly the possibility of sunburn. Use a sunscreen, wear protective clothing, and limit sun exposure while using this product and for a week afterward.	https://www.purcosmetics.com/shake-and-boost-powder-to-cream-multivitamin-booster?utm_source=google_shopping	https://www.purcosmetics.com/media/catalog/product/a/_/a_shake-boost.jpg	https://www.purcosmetics.com/media/catalog/product/s/h/shake_boost-swatch-72dpi.jpg	26.00 USD	 	 	in stock	0.04 lb	Pur Cosmetics	951392010	new	Pur Category > Makeup > Shop All,Pur Category > Skincare > Shop All,Pur Category > Skincare	 	 	FALSE	 	847137030391	847137030391	951392010
951425000	 	Eye Polish Glitters 5-Piece Kit	What it is: The best, no mess solution to glitter eyeshadows. Infused with metallic flecks, these liquid eye polish shadows make getting a glitter eye look easy. What it does: Glitter eyeshadow has never been easier! The unique formula in this Eye Polish Glitters Set has a highly pigmented base coat and a glittery top coat for an ultra-glam look that’s also perfect for every day. It looks effortless because it is! Plus, the blendable Eye Polish Glitters are long-lasting with less creasing or fading. With five shades to choose from, you can mix and match polishes or wear alone for a stay-put look that lets you shine all day.	https://www.purcosmetics.com/eye-polish-glitters-5-piece-kit?utm_source=google_shopping	https://www.purcosmetics.com/media/catalog/product/a/_/a_eye-polish-glitter-1200x1200.jpg	https://www.purcosmetics.com/media/catalog/product/e/y/eye_polish_glitters_arm_swatch.jpg,https://www.purcosmetics.com/media/catalog/product/b/_/b_1200x1200_swatches_eyepolish.jpg,https://www.purcosmetics.com/media/catalog/product/c/_/c_eye_polish_glitters_group_300dpi.jpg	39.00 USD	25.00 USD	 	in stock	0.21 lb	Pur Cosmetics	951425000	new	Pur Category > Makeup > Eyes > Eyeshadow,Pur Category > Makeup > Eyes,Pur Category > Makeup > Kits	 	 	FALSE	 	847137031329	847137031329	951425000
951681010	 	Essentials Brush Set	What it is: A luxe 5-piece cruelty-free brush set. What it does: Apply your makeup flawlessly without soaking up too much product or leaving fibers all over your face. With a luxurious blend of irresistibly soft synthetic fibers, each brush is designed to pick up and distribute makeup evenly and precisely without fallout. These professional quality Powder and Concealer Brushes help you to cover blemishes and even your skin tone with concealer and foundation. Sculpt your cheeks, face, and neck to contoured perfection with the Powder Brush for a seamless and airbrushed finish. Bring  What it’s formulated without:-Animal testing- Animal byproducts or derivatives What this set contains: 1 x Powder Brush,  1 x Concealer Brush, 1 x Crease Brush, 1 x Shadow Brush, and 1 x Fan Brush, plus a silver travel bag for easy storage.	https://www.purcosmetics.com/essentials-brush-set?utm_source=google_shopping	https://www.purcosmetics.com/media/catalog/product/a/_/a_essentials-brush-set-_bag_-1200x1200.jpg	https://www.purcosmetics.com/media/catalog/product/c/_/c_1.jpg,https://www.purcosmetics.com/media/catalog/product/c/_/c_2.jpg,https://www.purcosmetics.com/media/catalog/product/c/_/c_4.jpg,https://www.purcosmetics.com/media/catalog/product/c/_/c_3.jpg,https://www.purcosmetics.com/media/catalog/product/c/_/c_5.jpg	39.00 USD	 	 	in stock	0.36 lb	Pur Cosmetics	951681010	new	Pur Category > Makeup > Brushes & Tools,Pur Category > Makeup > Kits,Pur Category > Makeup > Shop All	 	 	FALSE	 	847137033736	847137033736	951681010
951682010	 	Pillow Blend Collection	What it is: A 4-piece silicone applicator toolkit that helps eliminate makeup waste. What it does: Designed to take your application of concealers, contours creams, moisturizers and foundations to the next level, the oil-resistant applicators allow you to smooth on liquid or cream products flawlessly while absorbing less makeup. Use the large applicator to evenly apply foundation, the medium for contour and the small for concealer. These silicone sponge tools are perfect for breakout-prone skin because they don’t harbor bacteria! Cleanup is quick and easy. Unlike having to deep clean your makeup brushes, these applicators can be wiped clean easily between applications with soap and water or makeup wipes. What it is formulated without:- Animal testing- Latex What this kit contains: 4 x Silicone Applicator Tools 	https://www.purcosmetics.com/pillow-blend-collection-4-piece-silicone-applicator-tools?utm_source=google_shopping	https://www.purcosmetics.com/media/catalog/product/a/_/a_pillow-brushes-1200x1200.jpg	https://www.purcosmetics.com/media/catalog/product/p/i/pillowblendcollection_siliconespoonbrush_all_72dpi.jpg,https://www.purcosmetics.com/media/catalog/product/b/_/b_pillowblendcollection.jpg,https://www.purcosmetics.com/media/catalog/product/c/_/c_pillowblendcollection_siliconespoonbrush_sideview_300dpi.jpg	39.00 USD	 	 	in stock	0.39 lb	Pur Cosmetics	951682010	new	Pur Category > Makeup > Brushes & Tools,Pur Category > Makeup > Kits,Pur Category > Skincare > Best Sellers	 	 	FALSE	 	847137032647	847137032647	951682010
951701010	 	Best of PUR 4-Piece Try-Me Kit	What it is: A  four-piece try-me kit filled with influencer and beauty editor favorites. What it does: Amplifies your natural radiance by giving the skin a healthy-looking glow. What it's formulated without:- Animal testing - Animal byproducts or derivatives - Talc - Parabens - Gluten - Petroleum - Mineral Oil - Sodium Lauryl Sulfate What you get: a mini Soak It Up Intense Hydrating Moisturizer, a mini Correcting Primer Prep & Perfect, a mini Mineral Glow Bronzing Powder, and a mini Fully Charged Mascara. 	https://www.purcosmetics.com/best-of-pur-4-piece-try-me-kit?utm_source=google_shopping	https://www.purcosmetics.com/media/catalog/product/b/_/b_products-lined-up.jpg	https://www.purcosmetics.com/media/catalog/product/a/_/a_bestofpur_ulta_productsgroup.jpg,https://www.purcosmetics.com/media/catalog/product/c/_/c_swatches.jpg	24.00 USD	 	 	in stock	0.38 lb	Pur Cosmetics	951701010	new	Pur Category > Makeup > Kits,Pur Category > Makeup > Shop All,Pur Category > Makeup	 	 	FALSE	 	847137030797	847137030797	951701010
951710010	 	Creator Eyeshadow & Face Palette	What it is: A refillable, customizable magnetic Creator Palette that allows you to create your favorite face and eye looks without having to reach for more than one palette. What it does: Create. Refill. Repeat. Sculpt the look you want with this magnetic Creator Palette with 12 versatile eyeshadows in warm washes of color with soft and metallic finishes to shades that are velvet matte. The light-catching highlighter and neutral bronzer glide on buttery soft and smooth for blendable, day-to-night looks that wow. Portable, artist-inspired Creator Palette is magnetic which allows each of the shades to be easily removed or rearranged, making it easy to try new shades or refill the ones you love. Oversized mirror easily folds out and stands like a vanity for hands-free application.	https://www.purcosmetics.com/creator-pre-filled-customizable-magnetic-palette?utm_source=google_shopping	https://www.purcosmetics.com/media/catalog/product/c/r/creator-openangle_72dpi_1.jpg	https://www.purcosmetics.com/media/catalog/product/c/r/creator-arm-swatch-72dpi.jpg,https://www.purcosmetics.com/media/catalog/product/c/r/creator_palette.jpeg,https://www.purcosmetics.com/media/catalog/product/c/r/creator-open_72dpi_1.jpg,https://www.purcosmetics.com/media/catalog/product/f/_/f_swatches.jpg,https://www.purcosmetics.com/media/catalog/product/c/r/creator-opensideview_72dpi_1.jpg,https://www.purcosmetics.com/media/catalog/product/c/r/creator-open-palette-empty.jpg	42.00 USD	 	 	in stock	0.92 lb	Pur Cosmetics	951710010	new	Pur Category > Makeup > Eyes > Eyeshadow,Pur Category > Makeup > Best Sellers,Pur Category > Makeup > Eyes	 	 	FALSE	 	847137018634	847137018634	951710010
951720010	 	4-in-1 Blush Book	What it is: A richly pigmented 4-in-1 Blush Book that provides sheer to bold color for universal skin tones. What it does: Sculpt, shape and define cheekbones with a stunning array of cool to warm pigments in this 4-in-1 Blush Book. Formulated with vitamins and botanical extracts, the long-wear, fade-proof matte and shimmer formulas are richly pigmented and buildable for a sheer to bold color that’s universally perfect for all skin tones. Developed with Energy Complex (a combination of ginseng, green tea and vitamin B) the 4 statement blushes help rejuvenate the skin to help improve the appearance of skin for a natural or brightening tone that wows. 4-in-1 Benefits  - Blendable - Brightening- Energizing- Long-wearing 	https://www.purcosmetics.com/4-in-1-blush-book?utm_source=google_shopping	https://www.purcosmetics.com/media/catalog/product/b/l/blush-book.jpg	https://www.purcosmetics.com/media/catalog/product/b/l/blush_book_2.jpg,https://www.purcosmetics.com/media/catalog/product/b/l/blush_book_rectangle.jpeg,https://www.purcosmetics.com/media/catalog/product/b/l/blush-book-crushed-swatches.jpg,https://www.purcosmetics.com/media/catalog/product/b/l/blush-book-palette-angle.jpg	36.00 USD	28.00 USD	2018-11-15T00:00:00-05:00/2020-03-05T23:59:59-05:00	in stock	0.00 lb	Pur Cosmetics	951720010	new	Pur Category > Makeup > Cheeks > Blush,Pur Category > Makeup > Best Sellers,Pur Category > Makeup > Cheeks	 	 	FALSE	 	847137026363	847137026363	951720010
951455340	 	Bronze & Brighten Cheek Palette	What it is: An on-the-go highlighter, blush and bronzer palette with three skin-perfecting, shimmery powders. What it does: Give the impression that you’ve been in the sun without the damaging effects. Creamy Bronze & Brighten Cheek Palette naturally illuminates the face to create an effortless sun-kissed glow that looks natural on every skin tone. Featuring our fan favorites light-attracting Afterglow highlighter and Mineral Glow bronzer along with a new blush shade, Blushing Glow, these versatile, highly pigmented, universally flattering colors work individually or blend well together for a radiant look that lasts. Sleek, modern design makes for the perfect, on-the-go palette that instantly lights up your favorite features and gives your skin an under the sun glow everywhere you go.	https://www.purcosmetics.com/bronze-and-brighten-cheek-palette?utm_source=google_shopping	https://www.purcosmetics.com/media/catalog/product/c/_/c_dreamer-palette-1200x1200.jpg	https://www.purcosmetics.com/media/catalog/product/b/r/bronze_and_brighten_arm_swatch.jpg,https://www.purcosmetics.com/media/catalog/product/d/r/dreamer-palette-closed.jpg	34.00 USD	24.00 USD	2018-07-24T00:00:00-04:00/2020-03-05T23:59:59-05:00	in stock	0.30 lb	Pur Cosmetics	951455340	new	Pur Category > Makeup > Cheeks > Blush,Pur Category > Makeup > Cheeks > Bronzer & Contour,Pur Category > Makeup > Cheeks > Highlighter	 	 	FALSE	 	847137034559	847137034559	951455340
951123010	 	4-in-1 Correcting Primer Energize & Rescue	What it is: A 4-in-1 Correcting Primer Energize & Rescue that will become your must-have beauty tonic and primer for your best and worst skin days. What it does: Your face is your canvas. Prep it for a flawless makeup look with this energizing and skin-nourishing 4-in-1 Correcting Primer Energize & Rescue. Packed with good-for-your-skin ingredients such as probiotics, aloe, caffeine and coconut water, this primer acts as a beauty tonic to help smooth and soothe your skin before makeup application while improving skin hydration and reducing the appearance of redness.	https://www.purcosmetics.com/4-in-1-correcting-primer?utm_source=google_shopping	https://www.purcosmetics.com/media/catalog/product/c/o/correcting-primer-energizeandrescue-capon-1floz-72dpi_1.jpg	https://www.purcosmetics.com/media/catalog/product/c/o/correcting-primer-energizeandrescue-swatch-72dpi.jpg	33.00 USD	 	 	in stock	0.00 lb	Pur Cosmetics	951123010	new	Pur Category > Makeup > Face > Primer,Pur Category > Makeup > Best Sellers,Pur Category > Makeup > Face	 	 	FALSE	 	847137031336	847137031336	951123010
951157050	 	Purple Pore Punisher Pore-Tightening Mask	AS SEEN IN... TOTAL BEAUTY  What it is: Purple Pore Punisher is a detoxifying, clean Pore-Tightening gel face mask that gently removes impurities for a softer, smoother and healthier complexion that glows. What it does: Pores beware! Purple Pore Punisher gel face mask works hard to detoxify the skin while gently removing impurities that often form because of daily stress and pollution. Are dead skin cells clogging your pores? No problem! This fragrance-free, detoxifying Pore-Tightening Mask is powerful enough to knock out the dirt and oil in your pores and help reduce the appearance of blackheads in just 15 minutes but gentle enough to restore hydration and help brighten skin’s complexion. You can feel the indulgent, iridescent, cruelty-free Pore-Tightening Mask work! The secret… mega-targeted, skin-nourishing, guilt-free natural ingredients like Charcoal (a natural, powerful magnet for toxins), soothing Witch Hazel Water and skin-plumping, hydra-boosting Glycerin. Yes, with the	https://www.purcosmetics.com/purple-pore-punisher-pore-tightening-mask?utm_source=google_shopping	https://www.purcosmetics.com/media/catalog/product/p/o/pore-punisher-face-bailey-2-72.jpg	https://www.purcosmetics.com/media/catalog/product/p/u/purpleporepunisher-capon-1200x1200.jpg,https://www.purcosmetics.com/media/catalog/product/p/o/pore-punisher-face-tisha-72.jpg,https://www.purcosmetics.com/media/catalog/product/p/u/pup_pore_.jpg	26.00 USD	 	 	in stock	0.19 lb	Pur Cosmetics	951157050	new	Pur Category > Makeup > Shop All,Pur Category > Skincare > Masks,Pur Category > Skincare > Shop All	 	 	FALSE	 	847137033743	847137033743	951157050
951391010	 	Translucent Loose Setting Powder	What it is: An everyday Translucent Loose Setting Powder with a built-in sponge that’s a must-have to set concealer and foundation.  What it does: Finally—a Translucent Loose Setting Powder that helps lock in foundation and concealer without adding color or cakey coverage. Soft to the touch, this lightweight, microfine setting powder features a translucent matte finish that won’t settle into fine lines or pores and blends seamlessly to help prevent creasing. The special mineralized formula is formulated with a combination of ginseng, green tea and Vitamin B to help rejuvenate the look of your skin and help blur the look of imperfections and pores that may still peek through your foundation. This Loose Setting Powder is like an invisible veil holding your look in place!	https://www.purcosmetics.com/translucent-loose-setting-powder?utm_source=google_shopping	https://www.purcosmetics.com/media/catalog/product/t/r/translucentloosesettingpowder_capon_72dpi.jpg	https://www.purcosmetics.com/media/catalog/product/t/r/translucentloosesettingpowder_swatch_72dpi.jpg	30.00 USD	 	 	in stock	0.14 lb	Pur Cosmetics	951391010	new	Pur Category > Makeup > Face > Powder,Pur Category > Makeup > Best Sellers,Pur Category > Makeup > Face	 	 	FALSE	 	847137030308	847137030308	951391010
951456130	 	Fully Charged Mascara Primer	What it is: A mascara primer that’s powered by magnetic technology to help stretch your lashes to ultra-luxe lengths and megawatt volume. What it does: Adds extra length and volume to your natural lashes in one swipe. It works seamlessly with our bestselling mascara, Fully Charged! What it's formulated without:- Animal testing - Animal byproducts or derivatives - Talc - Parabens - Gluten - Petroleum - Mineral Oil - Sodium Lauryl Sulfate What you get: 1 x 0.42 FL OZ/12.5 mL Mascara Primer	https://www.purcosmetics.com/fully-charged-lash-primer?utm_source=google_shopping	https://www.purcosmetics.com/media/catalog/product/b/_/b_fully-charged-mascara-primer.jpg	https://www.purcosmetics.com/media/catalog/product/f/u/fully-charged_primer_ba_withcopy.jpg,https://www.purcosmetics.com/media/catalog/product/f/u/fullychargedprimer-swatch-72dpi.jpg,https://www.purcosmetics.com/media/catalog/product/a/_/a_fully-charged-mascara-primer.jpg	20.00 USD	 	 	in stock	0.94 lb	Pur Cosmetics	951456130	new	Pur Category > Makeup > Eyes > Mascara,Pur Category > Makeup > Eyes,Pur Category > Makeup > Shop All	 	 	FALSE	 	847137031749	847137031749	951456130
951501010	 	4-in-1 Lip Toppers Kit	What it is: A 4-piece, high-shine pearlescent and glittery Lip Toppers gloss set made with a featherlight formula. What it does: Simplify your beauty routine with these 4-in-1 Lip Toppers. Pucker up. These double duty, high-shine, glittery lip glosses in pearlescent and glitter shades pair a lightweight, non-sticky formula with Vitamin E for kissable, smooth lips. When paired with your favorite lipstick, the 4-in-1 Lip Toppers set takes your look from daytime chic to nighttime shine.  	https://www.purcosmetics.com/lip-topper-kit?utm_source=google_shopping	https://www.purcosmetics.com/media/catalog/product/l/i/liptopper_all_capon_72dpi_1.jpg	https://www.purcosmetics.com/media/catalog/product/l/i/lip-topper-swatch-all-swatches-no-name-72dpi.jpg,https://www.purcosmetics.com/media/catalog/product/w/h/white-header_01.jpg,https://www.purcosmetics.com/media/catalog/product/l/i/liptoppers_carton_72dpi.jpg	32.00 USD	25.00 USD	2019-01-03T00:00:00-05:00/2020-03-05T23:59:59-05:00	in stock	0.21 lb	Pur Cosmetics	951501010	new	Pur Category > Makeup > Lips,Pur Category > Makeup > Kits,Pur Category > Makeup > Shop All	 	 	FALSE	 	847137023805	847137023805	951501010
951730010	 	Visionary Eyeshadow Palette	What it is: Visionary Eyeshadow Palette that holds 12 eyeshadows ranging from matte to shimmery pastel and warm neutral shades. What it does: Rise and grind beautiful people. Be the visionary that you are and go for the goal with this carefully selected 12-piece Visionary Eyeshadow Palette that helps you keep your eye on the prize while looking your best. Formulated with a combination of ginseng, green tea and vitamin B to help boost and rejuvenate skin. A mix of mattes, metallic pastels and warm neutral shades work seamlessly together so you can spend more time on your hustle and less time on your makeup. Your daily eye makeup routine just got easier.	https://www.purcosmetics.com/visionary-eyeshadow-palette?utm_source=google_shopping	https://www.purcosmetics.com/media/catalog/product/v/i/visionary-palette-open-angle.jpg	https://www.purcosmetics.com/media/catalog/product/v/i/visionary.jpeg,https://www.purcosmetics.com/media/catalog/product/v/i/visionary-palette-recolored_1200x1200.jpg	32.00 USD	 	 	in stock	0.40 lb	Pur Cosmetics	951730010	new	Pur Category > Makeup > Eyes > Eyeshadow,Pur Category > Makeup > Best Sellers,Pur Category > Makeup > Eyes	 	 	FALSE	 	847137018610	847137018610	951730010
851199110	 	Wine Bordeaux Cleanser	What it is: A gentle, antioxidant-rich face cleanser. What it does: Made with Farm to Jar™ wine and botanical extracts, this gentle cleanser helps eliminate pore-clogging dirt, oil, and impurities while helping to fight the appearance of free radical damage. The perfect start to your age-defying skincare regimen, our unique white wine formula helps target the look of dark spots, lines, wrinkles, and more for a youthfully fresh complexion.What it's formulated without: - Animal testing - Animal byproducts or derivatives- Parabens- Gluten- Alcohol- GMO - BPA  What you get: 1 x Wine Bordeaux Cleanser	https://www.purcosmetics.com/wine-bordeaux-cleanser?utm_source=google_shopping	https://www.purcosmetics.com/media/catalog/product/w/h/white-wine-cleanser.jpg	 	26.00 USD	10.00 USD	2018-02-12T00:00:00-05:00/2020-03-05T23:59:59-05:00	out of stock	0.35 lb	Pur Cosmetics	851199110	new	Pur Category > Vegan,Pur Category > Sale,Pur Category	 	 	FALSE	 	847137015091	847137015091	851199110
951748010	 	PUR x BOXYCHARM Eyeshadow Palette	What it is: A 12-piece eyeshadow palette in collaboration with your favorite beauty subscription box, BOXYCHARM!  What it does: Versatile, pigmented and transformative—from lightweight, warm matte shades of peach to a vibrate blue or shimmery pink, this Boxycharm eyeshadow palette is designed to help you achieve a fun look that’s sure to make your eyes pop. Expect silky bendability and pure color intensity in 12 highly pigmented, blendable shades that can be worn alone or in any combination for endless eye looks.	https://www.purcosmetics.com/pur-x-boxycharm-eyeshadow-palette?utm_source=google_shopping	https://www.purcosmetics.com/media/catalog/product/p/u/pur_hearts_boxycharm_open-angle_72dpi.jpg	https://www.purcosmetics.com/media/catalog/product/b/o/boxy-palette-arm-swatch_with-palette_light-skin_72dpi.jpg,https://www.purcosmetics.com/media/catalog/product/p/u/pur_hearts_boxycharm_open_72dpi.jpg,https://www.purcosmetics.com/media/catalog/product/p/u/pur-beach3873done.jpg,https://www.purcosmetics.com/media/catalog/product/p/u/pur-beach3889done-1200x1200.jpg	36.00 USD	20.00 USD	 	in stock	0.31 lb	Pur Cosmetics	951748010	new	Pur Category > Makeup > Eyes > Eyeshadow,Pur Category > Makeup > Eyes,Pur Category > Makeup > Palettes	 	 	FALSE	 	847137031732	847137031732	951748010
11822	 	4-in-1 Lip Duo	What it is: A creamy 4-in-1 Lip Duo with a high-impact matte liquid lip stain and nourishing oil treatment. What it does: It gives your lips four luscious looks with one lip product. Never choose between matte and gloss again when you can have both! The highly pigmented lip stain contains creamy shea butter and coconut oil that helps it glide on smoothly for a transfer-resistance finish that lasts all day long without fading. Plus, the matte lip stain gently plumps lips for a more defined pout and the lip oil is enriched with agave, sunflower, jojoba and cranberry oils to ensure that lips maintain moisture and a high shine. Clinical Results Using Lip Oil (Maxi-Lip™)*  - Participants reported the volume of their lips increased by 40%.  - Participants reported the hydration of their lips increased by 60%.  - 100% of participants believed the conditions of their lips improved.  *Based on a clinical study where participants applied 3x per day. Maxi-Lip™ is used under authorization of	https://www.purcosmetics.com/4-in-1-lip-duo?utm_source=google_shopping	https://www.purcosmetics.com/media/catalog/product/4/-/4-in-1-lip-duo-girl-crush-cap-on.jpg	https://www.purcosmetics.com/media/catalog/product/4/-/4-in-1-lip-duo-girl-crush-swatch.jpg	20.00 USD	 	 	in stock	 	Pur Cosmetics	11822	new	Pur Category > Makeup > Shop All,Pur Category > Makeup > Lips,Pur Category > Makeup	 	 	FALSE	 	847137032821	847137032821	11822
11821	 	4-in-1 Foundation Stick	AS SEEN IN... TEEN VOGUE 2018 ACNE AWARD WINNER What it is: A velvety matte 4-in-1 Foundation Stick with buildable medium-to-full coverage that allows you to look fabulous from all angles—360-degree complexion perfection. What it does: A captivating, creamy 4-in-1 Foundation Stick that’s formulated with age-defying Ceretin® Complex and skin-nourishing Energy Complex to conceal, contour and highlight. The results: brightening of uneven skin tone, supple hydration, reduction in dullness and the look of pores and protection against environmental stressors such as skin fatigue and signs of aging.  Eye-catching, sleek octagonal stick design. Just pop it in your bag and go. Choose from 24 creamy, flattering shades that offer beautiful, medium to full, stay-true coverage for a natural look that’s perfect for all skin types.	https://www.purcosmetics.com/4-in-1-foundation-stick?utm_source=google_shopping	https://www.purcosmetics.com/media/catalog/product/4/-/4-in-1-foundation-stick-cap-off-golden-light-72dpi.jpg	 	34.00 USD	 	 	in stock	0.12 lb	Pur Cosmetics	11821	new	Pur Category > Makeup > Face > Foundation,Pur Category > Makeup > Best Sellers,Pur Category > Makeup > Face	 	 	FALSE	 	847137030834	847137030834	11821
951202010	11821	4-in-1 Foundation Stick in Porcelain	AS SEEN IN... TEEN VOGUE 2018 ACNE AWARD WINNER  What it is: A velvety matte 4-in-1 Foundation Stick with buildable medium-to-full coverage that allows you to look fabulous from all angles—360-degree complexion perfection. What it does: A captivating, creamy 4-in-1 Foundation Stick that’s formulated with age-defying Ceretin® Complex and skin-nourishing Energy Complex to conceal, contour and highlight. The results: brightening of uneven skin tone, supple hydration, reduction in dullness and the look of pores and protection against environmental stressors such as skin fatigue and signs of aging.  Eye-catching, sleek octagonal stick design. Just pop it in your bag and go. Choose from 24 creamy, flattering shades that offer beautiful, medium to full, stay-true coverage for a natural look that’s perfect for all skin types.	https://www.purcosmetics.com/4-in-1-foundation-stick?utm_source=google_shopping	https://www.purcosmetics.com/media/catalog/product/4/-/4-in-1-foundation-stick-cap-off-porcelain-72dpi.jpg	https://www.purcosmetics.com/media/catalog/product/4/-/4-in-1-foundation-stick-porcelain-swatch-72dpi_2.jpg,https://www.purcosmetics.com/media/catalog/product/f/o/foundation-stick_porcleain_72dpi_2.jpg,https://www.purcosmetics.com/media/catalog/product/4/i/4in1foundationstick-shade-finder-porcelain-1080x1080.jpg,https://www.purcosmetics.com/media/catalog/product/4/-/4-in-1-foundation-stick-arm-swatches-72dpi_25.jpg	34.00 USD	 	 	in stock	0.12 lb	Pur Cosmetics	951202010	new	Pur Category > Makeup > Face > Foundation,Pur Category > Makeup > Best Sellers,Pur Category > Makeup > Face	 	 	FALSE	 	847137030803	847137030803	951202010
951202150	11821	4-in-1 Foundation Stick in Light Porcelain	AS SEEN IN... TEEN VOGUE 2018 ACNE AWARD WINNER  What it is: A velvety matte 4-in-1 Foundation Stick with buildable medium-to-full coverage that allows you to look fabulous from all angles—360-degree complexion perfection. What it does: A captivating, creamy 4-in-1 Foundation Stick that’s formulated with age-defying Ceretin® Complex and skin-nourishing Energy Complex to conceal, contour and highlight. The results: brightening of uneven skin tone, supple hydration, reduction in dullness and the look of pores and protection against environmental stressors such as skin fatigue and signs of aging.  Eye-catching, sleek octagonal stick design. Just pop it in your bag and go. Choose from 24 creamy, flattering shades that offer beautiful, medium to full, stay-true coverage for a natural look that’s perfect for all skin types.	https://www.purcosmetics.com/4-in-1-foundation-stick?utm_source=google_shopping	https://www.purcosmetics.com/media/catalog/product/4/-/4-in-1-foundation-stick-cap-off-light-porcelain-72dpi.jpg	https://www.purcosmetics.com/media/catalog/product/4/-/4-in-1-foundation-stick-lightporcelain-swatch-72dpi_2.jpg,https://www.purcosmetics.com/media/catalog/product/f/o/foundation-stick_light-porcleain_72dpi_2.jpg,https://www.purcosmetics.com/media/catalog/product/4/i/4in1foundationstick-shade-finder-light-porcelain-1080x1080_1.jpg,https://www.purcosmetics.com/media/catalog/product/4/-/4-in-1-foundation-stick-arm-swatches-72dpi_38.jpg	34.00 USD	 	 	in stock	0.12 lb	Pur Cosmetics	951202150	new	Pur Category > Makeup > Face > Foundation,Pur Category > Makeup > Best Sellers,Pur Category > Makeup > Face	 	 	FALSE	 	847137033460	847137033460	951202150
951202160	11821	4-in-1 Foundation Stick in Blush Porcelain	AS SEEN IN... TEEN VOGUE 2018 ACNE AWARD WINNER  What it is: A velvety matte 4-in-1 Foundation Stick with buildable medium-to-full coverage that allows you to look fabulous from all angles—360-degree complexion perfection. What it does: A captivating, creamy 4-in-1 Foundation Stick that’s formulated with age-defying Ceretin® Complex and skin-nourishing Energy Complex to conceal, contour and highlight. The results: brightening of uneven skin tone, supple hydration, reduction in dullness and the look of pores and protection against environmental stressors such as skin fatigue and signs of aging.  Eye-catching, sleek octagonal stick design. Just pop it in your bag and go. Choose from 24 creamy, flattering shades that offer beautiful, medium to full, stay-true coverage for a natural look that’s perfect for all skin types.	https://www.purcosmetics.com/4-in-1-foundation-stick?utm_source=google_shopping	https://www.purcosmetics.com/media/catalog/product/4/-/4-in-1-foundation-stick-cap-off-blush-porcelain-72dpi.jpg	https://www.purcosmetics.com/media/catalog/product/4/-/4-in-1-foundation-stick-blushporcelain-swatch-72dpi_2.jpg,https://www.purcosmetics.com/media/catalog/product/f/o/foundation-stick_blush-porcleain_72dpi_2.jpg,https://www.purcosmetics.com/media/catalog/product/4/i/4in1foundationstick-shade-finder-blush-porcelain-1080x1080_1.jpg,https://www.purcosmetics.com/media/catalog/product/4/-/4-in-1-foundation-stick-arm-swatches-72dpi_39.jpg	34.00 USD	 	 	in stock	0.12 lb	Pur Cosmetics	951202160	new	Pur Category > Makeup > Face > Foundation,Pur Category > Makeup > Best Sellers,Pur Category > Makeup > Face	 	 	FALSE	 	847137033477	847137033477	951202160
951202020	11821	4-in-1 Foundation Stick in Light	AS SEEN IN... TEEN VOGUE 2018 ACNE AWARD WINNER  What it is: A velvety matte 4-in-1 Foundation Stick with buildable medium-to-full coverage that allows you to look fabulous from all angles—360-degree complexion perfection. What it does: A captivating, creamy 4-in-1 Foundation Stick that’s formulated with age-defying Ceretin® Complex and skin-nourishing Energy Complex to conceal, contour and highlight. The results: brightening of uneven skin tone, supple hydration, reduction in dullness and the look of pores and protection against environmental stressors such as skin fatigue and signs of aging.  Eye-catching, sleek octagonal stick design. Just pop it in your bag and go. Choose from 24 creamy, flattering shades that offer beautiful, medium to full, stay-true coverage for a natural look that’s perfect for all skin types.	https://www.purcosmetics.com/4-in-1-foundation-stick?utm_source=google_shopping	https://www.purcosmetics.com/media/catalog/product/4/-/4-in-1-foundation-stick-cap-off-light-72dpi.jpg	https://www.purcosmetics.com/media/catalog/product/4/-/4-in-1-foundation-stick-light-swatch-72dpi_2.jpg,https://www.purcosmetics.com/media/catalog/product/f/o/foundation-stick_light_72dpi_2.jpg,https://www.purcosmetics.com/media/catalog/product/4/i/4in1foundationstick-shade-finder-light-1080x1080_2.jpg,https://www.purcosmetics.com/media/catalog/product/4/-/4-in-1-foundation-stick-arm-swatches-72dpi_26.jpg	34.00 USD	 	 	in stock	0.12 lb	Pur Cosmetics	951202020	new	Pur Category > Makeup > Face > Foundation,Pur Category > Makeup > Best Sellers,Pur Category > Makeup > Face	 	 	FALSE	 	847137030810	847137030810	951202020
951202030	11821	4-in-1 Foundation Stick in Blush Medium	AS SEEN IN... TEEN VOGUE 2018 ACNE AWARD WINNER  What it is: A velvety matte 4-in-1 Foundation Stick with buildable medium-to-full coverage that allows you to look fabulous from all angles—360-degree complexion perfection. What it does: A captivating, creamy 4-in-1 Foundation Stick that’s formulated with age-defying Ceretin® Complex and skin-nourishing Energy Complex to conceal, contour and highlight. The results: brightening of uneven skin tone, supple hydration, reduction in dullness and the look of pores and protection against environmental stressors such as skin fatigue and signs of aging.  Eye-catching, sleek octagonal stick design. Just pop it in your bag and go. Choose from 24 creamy, flattering shades that offer beautiful, medium to full, stay-true coverage for a natural look that’s perfect for all skin types.	https://www.purcosmetics.com/4-in-1-foundation-stick?utm_source=google_shopping	https://www.purcosmetics.com/media/catalog/product/4/-/4-in-1-foundation-stick-cap-off-blush-medium-72dpi.jpg	https://www.purcosmetics.com/media/catalog/product/4/-/4-in-1-foundation-stick-blush-medium-cap-on_1.jpg,https://www.purcosmetics.com/media/catalog/product/4/-/4-in-1-foundation-stick-blush-medium-closed_1.jpg,https://www.purcosmetics.com/media/catalog/product/4/i/4in1foundationstick-shade-finder-blush-medium-1080x1080.jpg,https://www.purcosmetics.com/media/catalog/product/4/-/4-in-1-foundation-stick-blush-medium-swatch_1.jpg	34.00 USD	 	 	in stock	0.12 lb	Pur Cosmetics	951202030	new	Pur Category > Makeup > Face > Foundation,Pur Category > Makeup > Best Sellers,Pur Category > Makeup > Face	 	 	FALSE	 	847137030827	847137030827	951202030
951202040	11821	4-in-1 Foundation Stick in Golden Medium	AS SEEN IN... TEEN VOGUE 2018 ACNE AWARD WINNER  What it is: A velvety matte 4-in-1 Foundation Stick with buildable medium-to-full coverage that allows you to look fabulous from all angles—360-degree complexion perfection. What it does: A captivating, creamy 4-in-1 Foundation Stick that’s formulated with age-defying Ceretin® Complex and skin-nourishing Energy Complex to conceal, contour and highlight. The results: brightening of uneven skin tone, supple hydration, reduction in dullness and the look of pores and protection against environmental stressors such as skin fatigue and signs of aging.  Eye-catching, sleek octagonal stick design. Just pop it in your bag and go. Choose from 24 creamy, flattering shades that offer beautiful, medium to full, stay-true coverage for a natural look that’s perfect for all skin types.	https://www.purcosmetics.com/4-in-1-foundation-stick?utm_source=google_shopping	https://www.purcosmetics.com/media/catalog/product/4/-/4-in-1-foundation-stick-cap-off-golden-medium-72dpi.jpg	https://www.purcosmetics.com/media/catalog/product/f/o/foundation-stick_golden-medium_72dpi_2.jpg,https://www.purcosmetics.com/media/catalog/product/4/-/4-in-1-foundation-stick-arm-swatches-72dpi_28.jpg,https://www.purcosmetics.com/media/catalog/product/4/-/4-in-1-foundation-stick-goldenmedium-swatch-72dpi_2.jpg,https://www.purcosmetics.com/media/catalog/product/f/o/foundation-stick-social-golden-medium.jpg	34.00 USD	 	 	in stock	0.12 lb	Pur Cosmetics	951202040	new	Pur Category > Makeup > Face > Foundation,Pur Category > Makeup > Best Sellers,Pur Category > Makeup > Face	 	 	FALSE	 	847137030834	847137030834	951202040
951202050	11821	4-in-1 Foundation Stick in Light Tan	AS SEEN IN... TEEN VOGUE 2018 ACNE AWARD WINNER  What it is: A velvety matte 4-in-1 Foundation Stick with buildable medium-to-full coverage that allows you to look fabulous from all angles—360-degree complexion perfection. What it does: A captivating, creamy 4-in-1 Foundation Stick that’s formulated with age-defying Ceretin® Complex and skin-nourishing Energy Complex to conceal, contour and highlight. The results: brightening of uneven skin tone, supple hydration, reduction in dullness and the look of pores and protection against environmental stressors such as skin fatigue and signs of aging.  Eye-catching, sleek octagonal stick design. Just pop it in your bag and go. Choose from 24 creamy, flattering shades that offer beautiful, medium to full, stay-true coverage for a natural look that’s perfect for all skin types.	https://www.purcosmetics.com/4-in-1-foundation-stick?utm_source=google_shopping	https://www.purcosmetics.com/media/catalog/product/4/-/4-in-1-foundation-stick-cap-off-light-tan-72dpi.jpg	https://www.purcosmetics.com/media/catalog/product/f/o/foundation-stick_light-tan_72dpi_2.jpg,https://www.purcosmetics.com/media/catalog/product/4/-/4-in-1-foundation-stick-arm-swatches-72dpi_30.jpg,https://www.purcosmetics.com/media/catalog/product/4/i/4in1foundationstick-shade-finder-light-tan-1080x1080.jpg,https://www.purcosmetics.com/media/catalog/product/4/-/4-in-1-foundation-stick-lighttan-swatch-72dpi_2.jpg	34.00 USD	 	 	in stock	0.12 lb	Pur Cosmetics	951202050	new	Pur Category > Makeup > Face > Foundation,Pur Category > Makeup > Best Sellers,Pur Category > Makeup > Face	 	 	FALSE	 	847137030841	847137030841	951202050
951202060	11821	4-in-1 Foundation Stick in Tan	AS SEEN IN... TEEN VOGUE 2018 ACNE AWARD WINNER  What it is: A velvety matte 4-in-1 Foundation Stick with buildable medium-to-full coverage that allows you to look fabulous from all angles—360-degree complexion perfection. What it does: A captivating, creamy 4-in-1 Foundation Stick that’s formulated with age-defying Ceretin® Complex and skin-nourishing Energy Complex to conceal, contour and highlight. The results: brightening of uneven skin tone, supple hydration, reduction in dullness and the look of pores and protection against environmental stressors such as skin fatigue and signs of aging.  Eye-catching, sleek octagonal stick design. Just pop it in your bag and go. Choose from 24 creamy, flattering shades that offer beautiful, medium to full, stay-true coverage for a natural look that’s perfect for all skin types.	https://www.purcosmetics.com/4-in-1-foundation-stick?utm_source=google_shopping	https://www.purcosmetics.com/media/catalog/product/4/-/4-in-1-foundation-stick-cap-off-tan-72dpi.jpg	https://www.purcosmetics.com/media/catalog/product/f/o/foundation-stick_tan_72dpi_3.jpg,https://www.purcosmetics.com/media/catalog/product/4/-/4-in-1-foundation-stick-arm-swatches-72dpi_31.jpg,https://www.purcosmetics.com/media/catalog/product/4/i/4in1foundationstick-shade-finder-tan-1080x1080.jpg,https://www.purcosmetics.com/media/catalog/product/4/-/4-in-1-liquid-foundation-tan-swatch-72dpi_4.jpg	34.00 USD	 	 	out of stock	0.12 lb	Pur Cosmetics	951202060	new	Pur Category > Makeup > Face > Foundation,Pur Category > Makeup > Best Sellers,Pur Category > Makeup > Face	 	 	FALSE	 	847137030858	847137030858	951202060
951202170	11821	4-in-1 Foundation Stick in Golden Light	AS SEEN IN... TEEN VOGUE 2018 ACNE AWARD WINNER  What it is: A velvety matte 4-in-1 Foundation Stick with buildable medium-to-full coverage that allows you to look fabulous from all angles—360-degree complexion perfection. What it does: A captivating, creamy 4-in-1 Foundation Stick that’s formulated with age-defying Ceretin® Complex and skin-nourishing Energy Complex to conceal, contour and highlight. The results: brightening of uneven skin tone, supple hydration, reduction in dullness and the look of pores and protection against environmental stressors such as skin fatigue and signs of aging.  Eye-catching, sleek octagonal stick design. Just pop it in your bag and go. Choose from 24 creamy, flattering shades that offer beautiful, medium to full, stay-true coverage for a natural look that’s perfect for all skin types.	https://www.purcosmetics.com/4-in-1-foundation-stick?utm_source=google_shopping	https://www.purcosmetics.com/media/catalog/product/4/-/4-in-1-foundation-stick-cap-off-golden-light-72dpi_1.jpg	https://www.purcosmetics.com/media/catalog/product/f/o/foundation-stick_golden-light_72dpi_2.jpg,https://www.purcosmetics.com/media/catalog/product/4/-/4-in-1-foundation-stick-arm-swatches-72dpi_40.jpg,https://www.purcosmetics.com/media/catalog/product/f/o/foundation-stick-social-golden-light-1080x1080.jpg,https://www.purcosmetics.com/media/catalog/product/4/-/4-in-1-foundation-stick-goldenlight-swatch-72dpi_2.jpg	34.00 USD	 	 	in stock	0.12 lb	Pur Cosmetics	951202170	new	Pur Category > Makeup > Face > Foundation,Pur Category > Makeup > Best Sellers,Pur Category > Makeup > Face	 	 	FALSE	 	847137033484	847137033484	951202170
951202180	11821	4-in-1 Foundation Stick in Medium Tan	AS SEEN IN... TEEN VOGUE 2018 ACNE AWARD WINNER  What it is: A velvety matte 4-in-1 Foundation Stick with buildable medium-to-full coverage that allows you to look fabulous from all angles—360-degree complexion perfection. What it does: A captivating, creamy 4-in-1 Foundation Stick that’s formulated with age-defying Ceretin® Complex and skin-nourishing Energy Complex to conceal, contour and highlight. The results: brightening of uneven skin tone, supple hydration, reduction in dullness and the look of pores and protection against environmental stressors such as skin fatigue and signs of aging.  Eye-catching, sleek octagonal stick design. Just pop it in your bag and go. Choose from 24 creamy, flattering shades that offer beautiful, medium to full, stay-true coverage for a natural look that’s perfect for all skin types.	https://www.purcosmetics.com/4-in-1-foundation-stick?utm_source=google_shopping	https://www.purcosmetics.com/media/catalog/product/4/-/4-in-1-foundation-stick-cap-off-medium-tan-72dpi.jpg	https://www.purcosmetics.com/media/catalog/product/f/o/foundation-stick_medium-tan_72dpi_2.jpg,https://www.purcosmetics.com/media/catalog/product/4/-/4-in-1-foundation-stick-arm-swatches-72dpi_41.jpg,https://www.purcosmetics.com/media/catalog/product/4/i/4in1foundationstick-shade-finder-medium-tan-1080x1080.jpg,https://www.purcosmetics.com/media/catalog/product/4/-/4-in-1-foundation-stick-mediumtan-swatch-72dpi_2.jpg	34.00 USD	 	 	in stock	0.12 lb	Pur Cosmetics	951202180	new	Pur Category > Makeup > Face > Foundation,Pur Category > Makeup > Best Sellers,Pur Category > Makeup > Face	 	 	FALSE	 	847137033491	847137033491	951202180
951202190	11821	4-in-1 Foundation Stick in Medium	AS SEEN IN... TEEN VOGUE 2018 ACNE AWARD WINNER  What it is: A velvety matte 4-in-1 Foundation Stick with buildable medium-to-full coverage that allows you to look fabulous from all angles—360-degree complexion perfection. What it does: A captivating, creamy 4-in-1 Foundation Stick that’s formulated with age-defying Ceretin® Complex and skin-nourishing Energy Complex to conceal, contour and highlight. The results: brightening of uneven skin tone, supple hydration, reduction in dullness and the look of pores and protection against environmental stressors such as skin fatigue and signs of aging.  Eye-catching, sleek octagonal stick design. Just pop it in your bag and go. Choose from 24 creamy, flattering shades that offer beautiful, medium to full, stay-true coverage for a natural look that’s perfect for all skin types.	https://www.purcosmetics.com/4-in-1-foundation-stick?utm_source=google_shopping	https://www.purcosmetics.com/media/catalog/product/4/-/4-in-1-foundation-stick-cap-off-medium-72dpi.jpg	https://www.purcosmetics.com/media/catalog/product/4/-/4-in-1-foundation-stick-medium-swatch-72dpi_2.jpg,https://www.purcosmetics.com/media/catalog/product/f/o/foundation-stick_medium_72dpi_2.jpg,https://www.purcosmetics.com/media/catalog/product/4/i/4in1foundationstick-shade-finder-medium-1080x1080.jpg,https://www.purcosmetics.com/media/catalog/product/4/-/4-in-1-foundation-stick-arm-swatches-72dpi_42.jpg	34.00 USD	 	 	out of stock	0.12 lb	Pur Cosmetics	951202190	new	Pur Category > Makeup > Face > Foundation,Pur Category > Makeup > Best Sellers,Pur Category > Makeup > Face	 	 	FALSE	 	847137033507	847137033507	951202190
951202200	11821	4-in-1 Foundation Stick in Golden Tan	AS SEEN IN... TEEN VOGUE 2018 ACNE AWARD WINNER  What it is: A velvety matte 4-in-1 Foundation Stick with buildable medium-to-full coverage that allows you to look fabulous from all angles—360-degree complexion perfection. What it does: A captivating, creamy 4-in-1 Foundation Stick that’s formulated with age-defying Ceretin® Complex and skin-nourishing Energy Complex to conceal, contour and highlight. The results: brightening of uneven skin tone, supple hydration, reduction in dullness and the look of pores and protection against environmental stressors such as skin fatigue and signs of aging.  Eye-catching, sleek octagonal stick design. Just pop it in your bag and go. Choose from 24 creamy, flattering shades that offer beautiful, medium to full, stay-true coverage for a natural look that’s perfect for all skin types.	https://www.purcosmetics.com/4-in-1-foundation-stick?utm_source=google_shopping	https://www.purcosmetics.com/media/catalog/product/4/-/4-in-1-foundation-stick-cap-off-golden-tan-72dpi.jpg	https://www.purcosmetics.com/media/catalog/product/f/o/foundation-stick_goldentan_72dpi_2.jpg,https://www.purcosmetics.com/media/catalog/product/4/-/4-in-1-foundation-stick-goldentan-swatch-72dpi_2.jpg,https://www.purcosmetics.com/media/catalog/product/4/i/4in1foundationstick-shade-finder-golden-tan-1080x1080.jpg,https://www.purcosmetics.com/media/catalog/product/4/-/4-in-1-foundation-stick-arm-swatches-72dpi_43.jpg	34.00 USD	 	 	in stock	0.12 lb	Pur Cosmetics	951202200	new	Pur Category > Makeup > Face > Foundation,Pur Category > Makeup > Best Sellers,Pur Category > Makeup > Face	 	 	FALSE	 	847137033514	847137033514	951202200
951202080	11821	4-in-1 Foundation Stick in Golden Dark	AS SEEN IN... TEEN VOGUE 2018 ACNE AWARD WINNER  What it is: A velvety matte 4-in-1 Foundation Stick with buildable medium-to-full coverage that allows you to look fabulous from all angles—360-degree complexion perfection. What it does: A captivating, creamy 4-in-1 Foundation Stick that’s formulated with age-defying Ceretin® Complex and skin-nourishing Energy Complex to conceal, contour and highlight. The results: brightening of uneven skin tone, supple hydration, reduction in dullness and the look of pores and protection against environmental stressors such as skin fatigue and signs of aging.  Eye-catching, sleek octagonal stick design. Just pop it in your bag and go. Choose from 24 creamy, flattering shades that offer beautiful, medium to full, stay-true coverage for a natural look that’s perfect for all skin types.	https://www.purcosmetics.com/4-in-1-foundation-stick?utm_source=google_shopping	https://www.purcosmetics.com/media/catalog/product/4/-/4-in-1-foundation-stick-cap-off-golden-dark-72dpi.jpg	https://www.purcosmetics.com/media/catalog/product/f/o/foundation-stick_golden-dark_72dpi_2.jpg,https://www.purcosmetics.com/media/catalog/product/4/-/4-in-1-foundation-stick-arm-swatches-72dpi_24.jpg,https://www.purcosmetics.com/media/catalog/product/4/i/4in1foundationstick-shade-finder-golden-dark-1080x1080.jpg,https://www.purcosmetics.com/media/catalog/product/4/-/4-in-1-foundation-stick-goldendark-swatch-72dpi_2.jpg	34.00 USD	 	 	out of stock	0.12 lb	Pur Cosmetics	951202080	new	Pur Category > Makeup > Face > Foundation,Pur Category > Makeup > Best Sellers,Pur Category > Makeup > Face	 	 	FALSE	 	847137030872	847137030872	951202080
951202070	11821	4-in-1 Foundation Stick in Medium Dark	AS SEEN IN... TEEN VOGUE 2018 ACNE AWARD WINNER  What it is: A velvety matte 4-in-1 Foundation Stick with buildable medium-to-full coverage that allows you to look fabulous from all angles—360-degree complexion perfection. What it does: A captivating, creamy 4-in-1 Foundation Stick that’s formulated with age-defying Ceretin® Complex and skin-nourishing Energy Complex to conceal, contour and highlight. The results: brightening of uneven skin tone, supple hydration, reduction in dullness and the look of pores and protection against environmental stressors such as skin fatigue and signs of aging.  Eye-catching, sleek octagonal stick design. Just pop it in your bag and go. Choose from 24 creamy, flattering shades that offer beautiful, medium to full, stay-true coverage for a natural look that’s perfect for all skin types.	https://www.purcosmetics.com/4-in-1-foundation-stick?utm_source=google_shopping	https://www.purcosmetics.com/media/catalog/product/4/-/4-in-1-foundation-stick-cap-off-medium-dark-72dpi.jpg	https://www.purcosmetics.com/media/catalog/product/f/o/foundation-stick_medium-dark_72dpi_2.jpg,https://www.purcosmetics.com/media/catalog/product/4/-/4-in-1-foundation-stick-arm-swatches-72dpi_32.jpg,https://www.purcosmetics.com/media/catalog/product/4/i/4in1foundationstick-shade-finder-medium-dark-1080x1080.jpg,https://www.purcosmetics.com/media/catalog/product/4/-/4-in-1-foundation-stick-mediumdark-swatch-72dpi_2.jpg	34.00 USD	 	 	in stock	0.01 lb	Pur Cosmetics	951202070	new	Pur Category > Makeup > Face > Foundation,Pur Category > Makeup > Best Sellers,Pur Category > Makeup > Face	 	 	FALSE	 	847137030865	847137030865	951202070
951202090	11821	4-in-1 Foundation Stick in Deep	AS SEEN IN... TEEN VOGUE 2018 ACNE AWARD WINNER  What it is: A velvety matte 4-in-1 Foundation Stick with buildable medium-to-full coverage that allows you to look fabulous from all angles—360-degree complexion perfection. What it does: A captivating, creamy 4-in-1 Foundation Stick that’s formulated with age-defying Ceretin® Complex and skin-nourishing Energy Complex to conceal, contour and highlight. The results: brightening of uneven skin tone, supple hydration, reduction in dullness and the look of pores and protection against environmental stressors such as skin fatigue and signs of aging.  Eye-catching, sleek octagonal stick design. Just pop it in your bag and go. Choose from 24 creamy, flattering shades that offer beautiful, medium to full, stay-true coverage for a natural look that’s perfect for all skin types.	https://www.purcosmetics.com/4-in-1-foundation-stick?utm_source=google_shopping	https://www.purcosmetics.com/media/catalog/product/4/-/4-in-1-foundation-stick-cap-off-deep-72dpi.jpg	https://www.purcosmetics.com/media/catalog/product/f/o/foundation-stick_deep_72dpi_2.jpg,https://www.purcosmetics.com/media/catalog/product/4/-/4-in-1-foundation-stick-arm-swatches-72dpi_33.jpg,https://www.purcosmetics.com/media/catalog/product/4/i/4in1foundationstick-shade-finder-deep-1080x1080.jpg,https://www.purcosmetics.com/media/catalog/product/4/-/4-in-1-foundation-stick-deep-swatch-72dpi_2.jpg	34.00 USD	 	 	in stock	0.01 lb	Pur Cosmetics	951202090	new	Pur Category > Makeup > Face > Foundation,Pur Category > Makeup > Best Sellers,Pur Category > Makeup > Face	 	 	FALSE	 	847137030889	847137030889	951202090
951202100	11821	4-in-1 Foundation Stick in Deeper	AS SEEN IN... TEEN VOGUE 2018 ACNE AWARD WINNER  What it is: A velvety matte 4-in-1 Foundation Stick with buildable medium-to-full coverage that allows you to look fabulous from all angles—360-degree complexion perfection. What it does: A captivating, creamy 4-in-1 Foundation Stick that’s formulated with age-defying Ceretin® Complex and skin-nourishing Energy Complex to conceal, contour and highlight. The results: brightening of uneven skin tone, supple hydration, reduction in dullness and the look of pores and protection against environmental stressors such as skin fatigue and signs of aging.  Eye-catching, sleek octagonal stick design. Just pop it in your bag and go. Choose from 24 creamy, flattering shades that offer beautiful, medium to full, stay-true coverage for a natural look that’s perfect for all skin types.	https://www.purcosmetics.com/4-in-1-foundation-stick?utm_source=google_shopping	https://www.purcosmetics.com/media/catalog/product/4/-/4-in-1-foundation-stick-cap-off-deeper-72dpi.jpg	https://www.purcosmetics.com/media/catalog/product/f/o/foundation-stick_deeper_72dpi_2.jpg,https://www.purcosmetics.com/media/catalog/product/4/-/4-in-1-foundation-stick-arm-swatches-72dpi_34.jpg,https://www.purcosmetics.com/media/catalog/product/4/-/4-in-1-foundation-stick-deeper-swatch-72dpi_2.jpg,https://www.purcosmetics.com/media/catalog/product/4/i/4in1foundationstick-shade-finder-deeper-1080x1080.jpg	34.00 USD	 	 	in stock	0.12 lb	Pur Cosmetics	951202100	new	Pur Category > Makeup > Face > Foundation,Pur Category > Makeup > Best Sellers,Pur Category > Makeup > Face	 	 	FALSE	 	847137033408	847137033408	951202100
951202120	11821	4-in-1 Foundation Stick in Light Espresso	AS SEEN IN... TEEN VOGUE 2018 ACNE AWARD WINNER  What it is: A velvety matte 4-in-1 Foundation Stick with buildable medium-to-full coverage that allows you to look fabulous from all angles—360-degree complexion perfection. What it does: A captivating, creamy 4-in-1 Foundation Stick that’s formulated with age-defying Ceretin® Complex and skin-nourishing Energy Complex to conceal, contour and highlight. The results: brightening of uneven skin tone, supple hydration, reduction in dullness and the look of pores and protection against environmental stressors such as skin fatigue and signs of aging.  Eye-catching, sleek octagonal stick design. Just pop it in your bag and go. Choose from 24 creamy, flattering shades that offer beautiful, medium to full, stay-true coverage for a natural look that’s perfect for all skin types.	https://www.purcosmetics.com/4-in-1-foundation-stick?utm_source=google_shopping	https://www.purcosmetics.com/media/catalog/product/4/-/4-in-1-foundation-stick-cap-off-light-espresso-72dpi.jpg	https://www.purcosmetics.com/media/catalog/product/f/o/foundation-stick_light-espresso_72dpi_1_2.jpg,https://www.purcosmetics.com/media/catalog/product/4/-/4-in-1-foundation-stick-arm-swatches-72dpi_35.jpg,https://www.purcosmetics.com/media/catalog/product/4/i/4in1foundationstick-shade-finder-light-espresso-1080x1080.jpg,https://www.purcosmetics.com/media/catalog/product/4/-/4-in-1-foundation-stick-espresso-swatch-72dpi_2.jpg	34.00 USD	 	 	in stock	0.12 lb	Pur Cosmetics	951202120	new	Pur Category > Makeup > Face > Foundation,Pur Category > Makeup > Best Sellers,Pur Category > Makeup > Face	 	 	FALSE	 	847137031312	847137031312	951202120
951202130	11821	4-in-1 Foundation Stick in Espresso	AS SEEN IN... TEEN VOGUE 2018 ACNE AWARD WINNER  What it is: A velvety matte 4-in-1 Foundation Stick with buildable medium-to-full coverage that allows you to look fabulous from all angles—360-degree complexion perfection. What it does: A captivating, creamy 4-in-1 Foundation Stick that’s formulated with age-defying Ceretin® Complex and skin-nourishing Energy Complex to conceal, contour and highlight. The results: brightening of uneven skin tone, supple hydration, reduction in dullness and the look of pores and protection against environmental stressors such as skin fatigue and signs of aging.  Eye-catching, sleek octagonal stick design. Just pop it in your bag and go. Choose from 24 creamy, flattering shades that offer beautiful, medium to full, stay-true coverage for a natural look that’s perfect for all skin types.	https://www.purcosmetics.com/4-in-1-foundation-stick?utm_source=google_shopping	https://www.purcosmetics.com/media/catalog/product/4/-/4-in-1-foundation-stick-cap-off-espresso-72dpi.jpg	https://www.purcosmetics.com/media/catalog/product/f/o/foundation-stick_espresso_72dpi_3.jpg,https://www.purcosmetics.com/media/catalog/product/4/-/4-in-1-foundation-stick-arm-swatches-72dpi_36.jpg,https://www.purcosmetics.com/media/catalog/product/4/-/4-in-1-foundation-stick-espresso-swatch-72dpi_3.jpg,https://www.purcosmetics.com/media/catalog/product/4/i/4in1foundationstick-shade-finder-espresso-1080x1080.jpg	34.00 USD	 	 	in stock	0.12 lb	Pur Cosmetics	951202130	new	Pur Category > Makeup > Face > Foundation,Pur Category > Makeup > Best Sellers,Pur Category > Makeup > Face	 	 	FALSE	 	847137031305	847137031305	951202130
951202140	11821	4-in-1 Foundation Stick in Dark Espresso	AS SEEN IN... TEEN VOGUE 2018 ACNE AWARD WINNER  What it is: A velvety matte 4-in-1 Foundation Stick with buildable medium-to-full coverage that allows you to look fabulous from all angles—360-degree complexion perfection. What it does: A captivating, creamy 4-in-1 Foundation Stick that’s formulated with age-defying Ceretin® Complex and skin-nourishing Energy Complex to conceal, contour and highlight. The results: brightening of uneven skin tone, supple hydration, reduction in dullness and the look of pores and protection against environmental stressors such as skin fatigue and signs of aging.  Eye-catching, sleek octagonal stick design. Just pop it in your bag and go. Choose from 24 creamy, flattering shades that offer beautiful, medium to full, stay-true coverage for a natural look that’s perfect for all skin types.	https://www.purcosmetics.com/4-in-1-foundation-stick?utm_source=google_shopping	https://www.purcosmetics.com/media/catalog/product/4/-/4-in-1-foundation-stick-cap-off-dark-espresso-72dpi.jpg	https://www.purcosmetics.com/media/catalog/product/f/o/foundation-stick_dark-esprsso_72dpi_2.jpg,https://www.purcosmetics.com/media/catalog/product/4/-/4-in-1-foundation-stick-arm-swatches-72dpi_37.jpg,https://www.purcosmetics.com/media/catalog/product/4/-/4-in-1-foundation-stick-darkespresso-swatch-72dpi_2.jpg,https://www.purcosmetics.com/media/catalog/product/4/i/4in1foundationstick-shade-finder-dark-espresso-1080x1080.jpg	34.00 USD	 	 	in stock	0.12 lb	Pur Cosmetics	951202140	new	Pur Category > Makeup > Face > Foundation,Pur Category > Makeup > Best Sellers,Pur Category > Makeup > Face	 	 	FALSE	 	847137033453	847137033453	951202140
951202210	11821	4-in-1 Foundation Stick in Dark	AS SEEN IN... TEEN VOGUE 2018 ACNE AWARD WINNER  What it is: A velvety matte 4-in-1 Foundation Stick with buildable medium-to-full coverage that allows you to look fabulous from all angles—360-degree complexion perfection. What it does: A captivating, creamy 4-in-1 Foundation Stick that’s formulated with age-defying Ceretin® Complex and skin-nourishing Energy Complex to conceal, contour and highlight. The results: brightening of uneven skin tone, supple hydration, reduction in dullness and the look of pores and protection against environmental stressors such as skin fatigue and signs of aging.  Eye-catching, sleek octagonal stick design. Just pop it in your bag and go. Choose from 24 creamy, flattering shades that offer beautiful, medium to full, stay-true coverage for a natural look that’s perfect for all skin types.	https://www.purcosmetics.com/4-in-1-foundation-stick?utm_source=google_shopping	https://www.purcosmetics.com/media/catalog/product/4/-/4-in-1-foundation-stick-cap-off-dark-72dpi.jpg	https://www.purcosmetics.com/media/catalog/product/f/o/foundation-stick_dark_72dpi_2.jpg,https://www.purcosmetics.com/media/catalog/product/4/-/4-in-1-foundation-stick-arm-swatches-72dpi_44.jpg,https://www.purcosmetics.com/media/catalog/product/4/i/4in1foundationstick-shade-finder-dark-1080x1080.jpg,https://www.purcosmetics.com/media/catalog/product/4/-/4-in-1-foundation-stick-dark-swatch-72dpi_2.jpg	34.00 USD	 	 	in stock	0.12 lb	Pur Cosmetics	951202210	new	Pur Category > Makeup > Face > Foundation,Pur Category > Makeup > Best Sellers,Pur Category > Makeup > Face	 	 	FALSE	 	847137033521	847137033521	951202210
951202220	11821	4-in-1 Foundation Stick in Warm Dark	AS SEEN IN... TEEN VOGUE 2018 ACNE AWARD WINNER  What it is: A velvety matte 4-in-1 Foundation Stick with buildable medium-to-full coverage that allows you to look fabulous from all angles—360-degree complexion perfection. What it does: A captivating, creamy 4-in-1 Foundation Stick that’s formulated with age-defying Ceretin® Complex and skin-nourishing Energy Complex to conceal, contour and highlight. The results: brightening of uneven skin tone, supple hydration, reduction in dullness and the look of pores and protection against environmental stressors such as skin fatigue and signs of aging.  Eye-catching, sleek octagonal stick design. Just pop it in your bag and go. Choose from 24 creamy, flattering shades that offer beautiful, medium to full, stay-true coverage for a natural look that’s perfect for all skin types.	https://www.purcosmetics.com/4-in-1-foundation-stick?utm_source=google_shopping	https://www.purcosmetics.com/media/catalog/product/4/-/4-in-1-foundation-stick-cap-off-warm-dark-72dpi.jpg	https://www.purcosmetics.com/media/catalog/product/4/-/4-in-1-foundation-stick-warmdark-swatch-72dpi_2.jpg,https://www.purcosmetics.com/media/catalog/product/f/o/foundation-stick_warm-dark_72dpi_2.jpg,https://www.purcosmetics.com/media/catalog/product/4/i/4in1foundationstick-shade-finder-warm-dark-1080x1080.jpg,https://www.purcosmetics.com/media/catalog/product/4/-/4-in-1-foundation-stick-arm-swatches-72dpi_45.jpg	34.00 USD	 	 	in stock	0.12 lb	Pur Cosmetics	951202220	new	Pur Category > Makeup > Face > Foundation,Pur Category > Makeup > Best Sellers,Pur Category > Makeup > Face	 	 	FALSE	 	847137033538	847137033538	951202220
951202230	11821	4-in-1 Foundation Stick in Warm Deep	AS SEEN IN... TEEN VOGUE 2018 ACNE AWARD WINNER  What it is: A velvety matte 4-in-1 Foundation Stick with buildable medium-to-full coverage that allows you to look fabulous from all angles—360-degree complexion perfection. What it does: A captivating, creamy 4-in-1 Foundation Stick that’s formulated with age-defying Ceretin® Complex and skin-nourishing Energy Complex to conceal, contour and highlight. The results: brightening of uneven skin tone, supple hydration, reduction in dullness and the look of pores and protection against environmental stressors such as skin fatigue and signs of aging.  Eye-catching, sleek octagonal stick design. Just pop it in your bag and go. Choose from 24 creamy, flattering shades that offer beautiful, medium to full, stay-true coverage for a natural look that’s perfect for all skin types.	https://www.purcosmetics.com/4-in-1-foundation-stick?utm_source=google_shopping	https://www.purcosmetics.com/media/catalog/product/4/-/4-in-1-foundation-stick-cap-off-warm-deep-72dpi.jpg	https://www.purcosmetics.com/media/catalog/product/f/o/foundation-stick_warmdeep_72dpi_2.jpg,https://www.purcosmetics.com/media/catalog/product/4/-/4-in-1-foundation-stick-arm-swatches-72dpi_46.jpg,https://www.purcosmetics.com/media/catalog/product/4/i/4in1foundationstick-shade-finder-warm-deep-1080x1080.jpg,https://www.purcosmetics.com/media/catalog/product/4/-/4-in-1-foundation-stick-warmdeep-swatch-72dpi_2.jpg	34.00 USD	 	 	in stock	0.12 lb	Pur Cosmetics	951202230	new	Pur Category > Makeup > Face > Foundation,Pur Category > Makeup > Best Sellers,Pur Category > Makeup > Face	 	 	FALSE	 	847137033545	847137033545	951202230
951202240	11821	4-in-1 Foundation Stick in Warm Tan	AS SEEN IN... TEEN VOGUE 2018 ACNE AWARD WINNER  What it is: A velvety matte 4-in-1 Foundation Stick with buildable medium-to-full coverage that allows you to look fabulous from all angles—360-degree complexion perfection. What it does: A captivating, creamy 4-in-1 Foundation Stick that’s formulated with age-defying Ceretin® Complex and skin-nourishing Energy Complex to conceal, contour and highlight. The results: brightening of uneven skin tone, supple hydration, reduction in dullness and the look of pores and protection against environmental stressors such as skin fatigue and signs of aging.  Eye-catching, sleek octagonal stick design. Just pop it in your bag and go. Choose from 24 creamy, flattering shades that offer beautiful, medium to full, stay-true coverage for a natural look that’s perfect for all skin types.	https://www.purcosmetics.com/4-in-1-foundation-stick?utm_source=google_shopping	https://www.purcosmetics.com/media/catalog/product/4/-/4-in-1-foundation-stick-cap-off-warm-tan-72dpi.jpg	https://www.purcosmetics.com/media/catalog/product/f/o/foundation-stick_warm-tan_72dpi_2.jpg,https://www.purcosmetics.com/media/catalog/product/4/-/4-in-1-foundation-stick-arm-swatches-72dpi_47.jpg,https://www.purcosmetics.com/media/catalog/product/4/i/4in1foundationstick-shade-finder-warm-tan-1080x1080.jpg,https://www.purcosmetics.com/media/catalog/product/4/-/4-in-1-foundation-stick-warmtan-swatch-72dpi_2.jpg	34.00 USD	 	 	in stock	0.12 lb	Pur Cosmetics	951202240	new	Pur Category > Makeup > Face > Foundation,Pur Category > Makeup > Best Sellers,Pur Category > Makeup > Face	 	 	FALSE	 	847137033552	847137033552	951202240
951202250	11821	4-in-1 Foundation Stick in Golden Deep	AS SEEN IN... TEEN VOGUE 2018 ACNE AWARD WINNER  What it is: A velvety matte 4-in-1 Foundation Stick with buildable medium-to-full coverage that allows you to look fabulous from all angles—360-degree complexion perfection. What it does: A captivating, creamy 4-in-1 Foundation Stick that’s formulated with age-defying Ceretin® Complex and skin-nourishing Energy Complex to conceal, contour and highlight. The results: brightening of uneven skin tone, supple hydration, reduction in dullness and the look of pores and protection against environmental stressors such as skin fatigue and signs of aging.  Eye-catching, sleek octagonal stick design. Just pop it in your bag and go. Choose from 24 creamy, flattering shades that offer beautiful, medium to full, stay-true coverage for a natural look that’s perfect for all skin types.	https://www.purcosmetics.com/4-in-1-foundation-stick?utm_source=google_shopping	https://www.purcosmetics.com/media/catalog/product/4/-/4-in-1-foundation-stick-cap-off-golden-deep-72dpi.jpg	https://www.purcosmetics.com/media/catalog/product/f/o/foundation-stick_golden-deep_72dpi_2.jpg,https://www.purcosmetics.com/media/catalog/product/4/-/4-in-1-foundation-stick-arm-swatches-72dpi_48.jpg,https://www.purcosmetics.com/media/catalog/product/4/-/4-in-1-foundation-stick-goldendeep-swatch-72dpi_2.jpg,https://www.purcosmetics.com/media/catalog/product/4/i/4in1foundationstick-shade-finder-golden-deep-1080x1080.jpg	34.00 USD	 	 	in stock	0.12 lb	Pur Cosmetics	951202250	new	Pur Category > Makeup > Face > Foundation,Pur Category > Makeup > Best Sellers,Pur Category > Makeup > Face	 	 	FALSE	 	847137033569	847137033569	951202250
951749010	 	Sculptor Highlight & Contour Palette	What it is: Sculptor is a vegan Highlight & Contour Palette with 4 exclusive, blendable, silky smooth highlighter and bronze powders that are universally flattering. What it does: You are your own work of art! Design and sculpt away effortlessly with Sculptor, a cruelty-free Highlight & Contour Palette with 4 exclusive, blendable shades that are universally flattering on all skin tones. Be the true individual that you are as you highlight and define to your desired level of radiance with 2 light-catching highlighters and 2 richly pigmented bronzer powders that equally illuminate and sculpt for flattering, lit-from-within looks that range from subtle to transformative. Buttery soft and smooth, all 4 powders are formulated with skin-nourishing Energy Complex—an antioxidant-rich multivitamin for the skin. Portable compact design with modern hexagon pattern packaging for easy on-the-glow application. 	https://www.purcosmetics.com/sculptor-highlight-contour-palette?utm_source=google_shopping	https://www.purcosmetics.com/media/catalog/product/s/c/sculptorpalette_angledopen_72dpi.jpg	https://www.purcosmetics.com/media/catalog/product/s/c/sculptorpalette_open_72dpi.jpg,https://www.purcosmetics.com/media/catalog/product/s/c/scupltor_palette_arm_swatch_square.jpg,https://www.purcosmetics.com/media/catalog/product/r/o/rock_n_rose_crush.jpg	30.00 USD	24.00 USD	 	in stock	0.20 lb	Pur Cosmetics	951749010	new	Pur Category > Makeup > Cheeks > Highlighter,Pur Category > Makeup > Cheeks > Bronzer & Contour,Pur Category > Makeup > Cheeks	 	 	FALSE	 	847137034122	847137034122	951749010
11823	 	Sweet 16 4-in-1 Pressed Mineral Makeup Foundation	What it is: A lightweight 4-in-1 Pressed Mineral Makeup Foundation, concealer, powder and SPF 15 for medium to full coverage. What it does: Our best-selling 4-in-1 Pressed Mineral Powder Foundation compact just got sweeter! Part of our Sweet 16 celebratory anniversary collection, this Limited Edition 4-in-1 Pressed Mineral Powder Foundation gives you the same flawless mineral coverage you expect from PÜR but with a celebratory, covetable design. Available in 11 universal shades, Pressed Mineral Makeup Foundation is adored worldwide for its lightweight feel and no-mess, no-stress application. Whether you are fair with golden undertones, olive with warm caramel undertones, or mahogany with bronze undertones, PÜR 4-in-1 Pressed Mineral Makeup has the perfect match for natural, smooth, all day coverage. Formulated with groundbreaking vegan skincare ingredients built into our award-winning formula, including naturally brightening Waltheria Extract and encapsulated mineral water from the	https://www.purcosmetics.com/sweet-16-4-in-1-pressed-mineral-makeup-foundation?utm_source=google_shopping	https://www.purcosmetics.com/media/catalog/product/4/-/4-in-1-pressed-sweet-16-goldenmedium-opencpt_28oz-72dpi_1.jpg	https://www.purcosmetics.com/media/catalog/product/4/-/4-in-1-pressed-mineral-makeup-foundation-with-spf-15-original-goldenmedium-swatch-72dpi.jpg,https://www.purcosmetics.com/media/catalog/product/4/-/4-in-1-foundation-sweet-16-fc-72dpi.jpg	34.00 USD	29.50 USD	 	in stock	0.20 lb	Pur Cosmetics	11823	new	Pur Category > Makeup > Face > Foundation,Pur Category > Makeup > Face,Pur Category > Makeup > Shop All	 	 	FALSE	 	 	 	11823
951225230	11823	Sweet 16 4-in-1 Pressed Mineral Makeup Foundation in Porcelain	What it is: A lightweight 4-in-1 Pressed Mineral Makeup Foundation, concealer, powder and SPF 15 for medium to full coverage. What it does: Our best-selling 4-in-1 Pressed Mineral Powder Foundation compact just got sweeter! Part of our Sweet 16 celebratory anniversary collection, this Limited Edition 4-in-1 Pressed Mineral Powder Foundation gives you the same flawless mineral coverage you expect from PÜR but with a celebratory, covetable design. Available in 11 universal shades, Pressed Mineral Makeup Foundation is adored worldwide for its lightweight feel and no-mess, no-stress application. Whether you are fair with golden undertones, olive with warm caramel undertones, or mahogany with bronze undertones, PÜR 4-in-1 Pressed Mineral Makeup has the perfect match for natural, smooth, all day coverage. Formulated with groundbreaking vegan skincare ingredients built into our award-winning formula, including naturally brightening Waltheria Extract and encapsulated mineral water from the	https://www.purcosmetics.com/sweet-16-4-in-1-pressed-mineral-makeup-foundation?utm_source=google_shopping	https://www.purcosmetics.com/media/catalog/product/4/-/4-in-1-pressed-sweet-16-porcelain-opencpt-.28oz-72dpi.jpg	https://www.purcosmetics.com/media/catalog/product/4/-/4-in-1-pressed-sweet-16-straight-on.jpg,https://www.purcosmetics.com/media/catalog/product/4/-/4-in-1-pressed-mineral-makeup-foundation-with-spf-15-original-porcelain-swatch-72dpi.jpg,https://www.purcosmetics.com/media/catalog/product/f/o/foundation-stick_light-porcleain_72dpi_1_2.jpg	34.00 USD	29.50 USD	 	in stock	0.04 lb	Pur Cosmetics	951225230	new	Pur Category > Makeup > Face > Foundation,Pur Category > Makeup > Face,Pur Category > Makeup > Shop All	 	 	FALSE	 	847137036140	847137036140	951225230
951225240	11823	Sweet 16 4-in-1 Pressed Mineral Makeup Foundation in Light	What it is: A lightweight 4-in-1 Pressed Mineral Makeup Foundation, concealer, powder and SPF 15 for medium to full coverage. What it does: Our best-selling 4-in-1 Pressed Mineral Powder Foundation compact just got sweeter! Part of our Sweet 16 celebratory anniversary collection, this Limited Edition 4-in-1 Pressed Mineral Powder Foundation gives you the same flawless mineral coverage you expect from PÜR but with a celebratory, covetable design. Available in 11 universal shades, Pressed Mineral Makeup Foundation is adored worldwide for its lightweight feel and no-mess, no-stress application. Whether you are fair with golden undertones, olive with warm caramel undertones, or mahogany with bronze undertones, PÜR 4-in-1 Pressed Mineral Makeup has the perfect match for natural, smooth, all day coverage. Formulated with groundbreaking vegan skincare ingredients built into our award-winning formula, including naturally brightening Waltheria Extract and encapsulated mineral water from the	https://www.purcosmetics.com/sweet-16-4-in-1-pressed-mineral-makeup-foundation?utm_source=google_shopping	https://www.purcosmetics.com/media/catalog/product/4/-/4-in-1-pressed-sweet-16-light-opencpt-.28oz-72dpi.jpg	https://www.purcosmetics.com/media/catalog/product/4/-/4-in-1-foundation-sweet-16-fc-72dpi_1.jpg,https://www.purcosmetics.com/media/catalog/product/4/-/4-in-1-pressed-mineral-makeup-foundation-with-spf-15-original-light-swatch-72dpi.jpg,https://www.purcosmetics.com/media/catalog/product/f/o/foundation-stick_light_72dpi_1_3.jpg	34.00 USD	29.50 USD	 	in stock	0.20 lb	Pur Cosmetics	951225240	new	Pur Category > Makeup > Face > Foundation,Pur Category > Makeup > Face,Pur Category > Makeup > Shop All	 	 	FALSE	 	847137036157	847137036157	951225240
951225250	11823	Sweet 16 4-in-1 Pressed Mineral Makeup Foundation in Blush Medium	What it is: A lightweight 4-in-1 Pressed Mineral Makeup Foundation, concealer, powder and SPF 15 for medium to full coverage. What it does: Our best-selling 4-in-1 Pressed Mineral Powder Foundation compact just got sweeter! Part of our Sweet 16 celebratory anniversary collection, this Limited Edition 4-in-1 Pressed Mineral Powder Foundation gives you the same flawless mineral coverage you expect from PÜR but with a celebratory, covetable design. Available in 11 universal shades, Pressed Mineral Makeup Foundation is adored worldwide for its lightweight feel and no-mess, no-stress application. Whether you are fair with golden undertones, olive with warm caramel undertones, or mahogany with bronze undertones, PÜR 4-in-1 Pressed Mineral Makeup has the perfect match for natural, smooth, all day coverage. Formulated with groundbreaking vegan skincare ingredients built into our award-winning formula, including naturally brightening Waltheria Extract and encapsulated mineral water from the	https://www.purcosmetics.com/sweet-16-4-in-1-pressed-mineral-makeup-foundation?utm_source=google_shopping	https://www.purcosmetics.com/media/catalog/product/4/-/4-in-1-pressed-sweet-16-blush-medium-open-72dpi.jpg	https://www.purcosmetics.com/media/catalog/product/4/-/4-in-1-foundation-sweet-16-fc-72dpi_2.jpg,https://www.purcosmetics.com/media/catalog/product/4/-/4-in-1-pressed-mineral-makeup-blushmedium-swatch-72dpi.jpg,https://www.purcosmetics.com/media/catalog/product/f/o/foundation-stick_blush-medium_72dpi_1_2.jpg	34.00 USD	29.50 USD	 	in stock	0.20 lb	Pur Cosmetics	951225250	new	Pur Category > Makeup > Face > Foundation,Pur Category > Makeup > Face,Pur Category > Makeup > Shop All	 	 	FALSE	 	847137036164	847137036164	951225250
951225270	11823	Sweet 16 4-in-1 Pressed Mineral Makeup Foundation in Light Tan	What it is: A lightweight 4-in-1 Pressed Mineral Makeup Foundation, concealer, powder and SPF 15 for medium to full coverage. What it does: Our best-selling 4-in-1 Pressed Mineral Powder Foundation compact just got sweeter! Part of our Sweet 16 celebratory anniversary collection, this Limited Edition 4-in-1 Pressed Mineral Powder Foundation gives you the same flawless mineral coverage you expect from PÜR but with a celebratory, covetable design. Available in 11 universal shades, Pressed Mineral Makeup Foundation is adored worldwide for its lightweight feel and no-mess, no-stress application. Whether you are fair with golden undertones, olive with warm caramel undertones, or mahogany with bronze undertones, PÜR 4-in-1 Pressed Mineral Makeup has the perfect match for natural, smooth, all day coverage. Formulated with groundbreaking vegan skincare ingredients built into our award-winning formula, including naturally brightening Waltheria Extract and encapsulated mineral water from the	https://www.purcosmetics.com/sweet-16-4-in-1-pressed-mineral-makeup-foundation?utm_source=google_shopping	https://www.purcosmetics.com/media/catalog/product/4/-/4-in-1-pressed-sweet-16-lighttan-opencpt-.28oz-72dpi.jpg	https://www.purcosmetics.com/media/catalog/product/4/-/4-in-1-foundation-sweet-16-fc-72dpi_4.jpg,https://www.purcosmetics.com/media/catalog/product/4/-/4-in-1-pressed-mineral-makeup-lighttan-swatch-72dpi.jpg,https://www.purcosmetics.com/media/catalog/product/f/o/foundation-stick_light-tan_72dpi_1_2.jpg	34.00 USD	29.50 USD	 	in stock	0.20 lb	Pur Cosmetics	951225270	new	Pur Category > Makeup > Face > Foundation,Pur Category > Makeup > Face,Pur Category > Makeup > Shop All	 	 	FALSE	 	847137036188	847137036188	951225270
951225280	11823	Sweet 16 4-in-1 Pressed Mineral Makeup Foundation in Tan	What it is: A lightweight 4-in-1 Pressed Mineral Makeup Foundation, concealer, powder and SPF 15 for medium to full coverage. What it does: Our best-selling 4-in-1 Pressed Mineral Powder Foundation compact just got sweeter! Part of our Sweet 16 celebratory anniversary collection, this Limited Edition 4-in-1 Pressed Mineral Powder Foundation gives you the same flawless mineral coverage you expect from PÜR but with a celebratory, covetable design. Available in 11 universal shades, Pressed Mineral Makeup Foundation is adored worldwide for its lightweight feel and no-mess, no-stress application. Whether you are fair with golden undertones, olive with warm caramel undertones, or mahogany with bronze undertones, PÜR 4-in-1 Pressed Mineral Makeup has the perfect match for natural, smooth, all day coverage. Formulated with groundbreaking vegan skincare ingredients built into our award-winning formula, including naturally brightening Waltheria Extract and encapsulated mineral water from the	https://www.purcosmetics.com/sweet-16-4-in-1-pressed-mineral-makeup-foundation?utm_source=google_shopping	https://www.purcosmetics.com/media/catalog/product/4/-/4-in-1-pressed-sweet-16-tan-opencpt-.28oz-72dpi.jpg	https://www.purcosmetics.com/media/catalog/product/4/-/4-in-1-foundation-sweet-16-fc-72dpi_5.jpg,https://www.purcosmetics.com/media/catalog/product/4/-/4-in-1-pressed-mineral-makeup-foundation-with-spf-15-original-tan-swatch-72dpi.jpg,https://www.purcosmetics.com/media/catalog/product/f/o/foundation-stick_tan_72dpi_1_3.jpg	34.00 USD	29.50 USD	 	in stock	0.20 lb	Pur Cosmetics	951225280	new	Pur Category > Makeup > Face > Foundation,Pur Category > Makeup > Face,Pur Category > Makeup > Shop All	 	 	FALSE	 	847137036195	847137036195	951225280
951225290	11823	Sweet 16 4-in-1 Pressed Mineral Makeup Foundation in Medium Dark	What it is: A lightweight 4-in-1 Pressed Mineral Makeup Foundation, concealer, powder and SPF 15 for medium to full coverage. What it does: Our best-selling 4-in-1 Pressed Mineral Powder Foundation compact just got sweeter! Part of our Sweet 16 celebratory anniversary collection, this Limited Edition 4-in-1 Pressed Mineral Powder Foundation gives you the same flawless mineral coverage you expect from PÜR but with a celebratory, covetable design. Available in 11 universal shades, Pressed Mineral Makeup Foundation is adored worldwide for its lightweight feel and no-mess, no-stress application. Whether you are fair with golden undertones, olive with warm caramel undertones, or mahogany with bronze undertones, PÜR 4-in-1 Pressed Mineral Makeup has the perfect match for natural, smooth, all day coverage. Formulated with groundbreaking vegan skincare ingredients built into our award-winning formula, including naturally brightening Waltheria Extract and encapsulated mineral water from the	https://www.purcosmetics.com/sweet-16-4-in-1-pressed-mineral-makeup-foundation?utm_source=google_shopping	https://www.purcosmetics.com/media/catalog/product/4/-/4-in-1-pressed-sweet-16-mediumdark-opencpt-.28oz-72dpi.jpg	https://www.purcosmetics.com/media/catalog/product/4/-/4-in-1-foundation-sweet-16-fc-72dpi_6.jpg,https://www.purcosmetics.com/media/catalog/product/4/-/4-in-1-pressed-mineral-makeup-foundation-with-spf-15-original-mediumdark-swatch-72dpi.jpg,https://www.purcosmetics.com/media/catalog/product/f/o/foundation-stick_medium-dark_72dpi_1_2.jpg	34.00 USD	29.50 USD	 	in stock	0.20 lb	Pur Cosmetics	951225290	new	Pur Category > Makeup > Face > Foundation,Pur Category > Makeup > Face,Pur Category > Makeup > Shop All	 	 	FALSE	 	847137036201	847137036201	951225290
951225300	11823	Sweet 16 4-in-1 Pressed Mineral Makeup Foundation in Golden Dark	What it is: A lightweight 4-in-1 Pressed Mineral Makeup Foundation, concealer, powder and SPF 15 for medium to full coverage. What it does: Our best-selling 4-in-1 Pressed Mineral Powder Foundation compact just got sweeter! Part of our Sweet 16 celebratory anniversary collection, this Limited Edition 4-in-1 Pressed Mineral Powder Foundation gives you the same flawless mineral coverage you expect from PÜR but with a celebratory, covetable design. Available in 11 universal shades, Pressed Mineral Makeup Foundation is adored worldwide for its lightweight feel and no-mess, no-stress application. Whether you are fair with golden undertones, olive with warm caramel undertones, or mahogany with bronze undertones, PÜR 4-in-1 Pressed Mineral Makeup has the perfect match for natural, smooth, all day coverage. Formulated with groundbreaking vegan skincare ingredients built into our award-winning formula, including naturally brightening Waltheria Extract and encapsulated mineral water from the	https://www.purcosmetics.com/sweet-16-4-in-1-pressed-mineral-makeup-foundation?utm_source=google_shopping	https://www.purcosmetics.com/media/catalog/product/4/-/4-in-1-pressed-sweet-16-goldendark-opencpt-.28oz-72dpi.jpg	https://www.purcosmetics.com/media/catalog/product/4/-/4-in-1-foundation-sweet-16-fc-72dpi_7.jpg,https://www.purcosmetics.com/media/catalog/product/4/-/4-in-1-pressed-mineral-makeup-goldendark-swatch-72dpi.jpg,https://www.purcosmetics.com/media/catalog/product/f/o/foundation-stick_golden-dark_72dpi_1_2.jpg	34.00 USD	29.50 USD	 	in stock	0.20 lb	Pur Cosmetics	951225300	new	Pur Category > Makeup > Face > Foundation,Pur Category > Makeup > Face,Pur Category > Makeup > Shop All	 	 	FALSE	 	847137036218	847137036218	951225300
951225310	11823	Sweet 16 4-in-1 Pressed Mineral Makeup Foundation in Deep	What it is: A lightweight 4-in-1 Pressed Mineral Makeup Foundation, concealer, powder and SPF 15 for medium to full coverage. What it does: Our best-selling 4-in-1 Pressed Mineral Powder Foundation compact just got sweeter! Part of our Sweet 16 celebratory anniversary collection, this Limited Edition 4-in-1 Pressed Mineral Powder Foundation gives you the same flawless mineral coverage you expect from PÜR but with a celebratory, covetable design. Available in 11 universal shades, Pressed Mineral Makeup Foundation is adored worldwide for its lightweight feel and no-mess, no-stress application. Whether you are fair with golden undertones, olive with warm caramel undertones, or mahogany with bronze undertones, PÜR 4-in-1 Pressed Mineral Makeup has the perfect match for natural, smooth, all day coverage. Formulated with groundbreaking vegan skincare ingredients built into our award-winning formula, including naturally brightening Waltheria Extract and encapsulated mineral water from the	https://www.purcosmetics.com/sweet-16-4-in-1-pressed-mineral-makeup-foundation?utm_source=google_shopping	https://www.purcosmetics.com/media/catalog/product/4/-/4-in-1-pressed-sweet-16-deep-opencpt-.28oz-72dpi.jpg	https://www.purcosmetics.com/media/catalog/product/4/-/4-in-1-pressed-mineral-makeup-deep-swatch-72dpi.jpg,https://www.purcosmetics.com/media/catalog/product/4/-/4-in-1-foundation-sweet-16-fc-72dpi_8.jpg,https://www.purcosmetics.com/media/catalog/product/f/o/foundation-stick_deep_72dpi_1_3.jpg	34.00 USD	29.50 USD	 	in stock	0.20 lb	Pur Cosmetics	951225310	new	Pur Category > Makeup > Face > Foundation,Pur Category > Makeup > Face,Pur Category > Makeup > Shop All	 	 	FALSE	 	847137036225	847137036225	951225310
951225320	11823	Sweet 16 4-in-1 Pressed Mineral Makeup Foundation in Deeper	What it is: A lightweight 4-in-1 Pressed Mineral Makeup Foundation, concealer, powder and SPF 15 for medium to full coverage. What it does: Our best-selling 4-in-1 Pressed Mineral Powder Foundation compact just got sweeter! Part of our Sweet 16 celebratory anniversary collection, this Limited Edition 4-in-1 Pressed Mineral Powder Foundation gives you the same flawless mineral coverage you expect from PÜR but with a celebratory, covetable design. Available in 11 universal shades, Pressed Mineral Makeup Foundation is adored worldwide for its lightweight feel and no-mess, no-stress application. Whether you are fair with golden undertones, olive with warm caramel undertones, or mahogany with bronze undertones, PÜR 4-in-1 Pressed Mineral Makeup has the perfect match for natural, smooth, all day coverage. Formulated with groundbreaking vegan skincare ingredients built into our award-winning formula, including naturally brightening Waltheria Extract and encapsulated mineral water from the	https://www.purcosmetics.com/sweet-16-4-in-1-pressed-mineral-makeup-foundation?utm_source=google_shopping	https://www.purcosmetics.com/media/catalog/product/4/-/4-in-1-pressed-sweet-16-deeper-opencpt-.28oz-72dpi.jpg	https://www.purcosmetics.com/media/catalog/product/4/-/4-in-1-foundation-sweet-16-fc-72dpi_9.jpg,https://www.purcosmetics.com/media/catalog/product/4/-/4-in-1-pressed-mineral-makeup-deeper-swatch-72dpi.jpg,https://www.purcosmetics.com/media/catalog/product/f/o/foundation-stick_deeper_72dpi_1_2.jpg	34.00 USD	29.50 USD	 	in stock	0.20 lb	Pur Cosmetics	951225320	new	Pur Category > Makeup > Face > Foundation,Pur Category > Makeup > Face,Pur Category > Makeup > Shop All	 	 	FALSE	 	847137036232	847137036232	951225320
951225330	11823	Sweet 16 4-in-1 Pressed Mineral Makeup Foundation in Medium Tan	What it is: A lightweight 4-in-1 Pressed Mineral Makeup Foundation, concealer, powder and SPF 15 for medium to full coverage. What it does: Our best-selling 4-in-1 Pressed Mineral Powder Foundation compact just got sweeter! Part of our Sweet 16 celebratory anniversary collection, this Limited Edition 4-in-1 Pressed Mineral Powder Foundation gives you the same flawless mineral coverage you expect from PÜR but with a celebratory, covetable design. Available in 11 universal shades, Pressed Mineral Makeup Foundation is adored worldwide for its lightweight feel and no-mess, no-stress application. Whether you are fair with golden undertones, olive with warm caramel undertones, or mahogany with bronze undertones, PÜR 4-in-1 Pressed Mineral Makeup has the perfect match for natural, smooth, all day coverage. Formulated with groundbreaking vegan skincare ingredients built into our award-winning formula, including naturally brightening Waltheria Extract and encapsulated mineral water from the	https://www.purcosmetics.com/sweet-16-4-in-1-pressed-mineral-makeup-foundation?utm_source=google_shopping	https://www.purcosmetics.com/media/catalog/product/4/-/4-in-1-pressed-sweet-16-mediumtan-opencpt-.28oz-72dpi.jpg	https://www.purcosmetics.com/media/catalog/product/4/-/4-in-1-foundation-sweet-16-fc-72dpi_10.jpg,https://www.purcosmetics.com/media/catalog/product/4/-/4-in-1-pressed-mineral-makeup-mediumtan-swatch-72dpi.jpg	34.00 USD	29.50 USD	 	in stock	0.20 lb	Pur Cosmetics	951225330	new	Pur Category > Makeup > Face > Foundation,Pur Category > Makeup > Face,Pur Category > Makeup > Shop All	 	 	FALSE	 	847137036249	847137036249	951225330
951111130	 	4-in-1 Cloud Cream Moisturizer	What it is: 4-in-1 Cloud Cream is a dreamy Gel-to-Water Hydrating Essence Moisturizer with good-for-your-skin ingredients and the ultimate hydrating, smoothing and soothing benefits. What it does: Incredibly hydrating, yet light…water-based 4-in-1 Cloud Cream is a moisturizing dream come true. Enriched with age-defying, skin-smoothing Ceretin® Complex, the moisturizing, light-as-air 4-in-1 Cloud Cream nourishes and primes skin with limitless hydration for a radiant and healthier-looking complexion that glows. Skin is instantly moisturized, prepped and primed so makeup can go on flawlessly. Skin practically drinks in the hydrating, plumping benefits. Soothing Green Algae Extract helps protect skin from damage caused by visible blue light, a common environmental stressor that can cause oxidative damage to the skin. The innovative Gel-to-Water Hydrating Essence Moisturizer cream magically transforms upon application. So pillowy and fresh, without being sticky, your skin will look so	https://www.purcosmetics.com/4-in-1-cloud-cream-moisturizer?utm_source=google_shopping	https://www.purcosmetics.com/media/catalog/product/c/l/cloud-cream-capofftoside-72dpi.jpg	https://www.purcosmetics.com/media/catalog/product/c/l/cloud_cream_model1.jpg,https://www.purcosmetics.com/media/catalog/product/c/l/cloud_cream_model2.jpg,https://www.purcosmetics.com/media/catalog/product/c/l/cloud-cream-swatch-72dpi.jpg,https://www.purcosmetics.com/media/catalog/product/c/l/cloud-cream-capon-72dpi.jpg	38.00 USD	 	 	in stock	0.00 lb	Pur Cosmetics	951111130	new	Pur Category > Skincare > Best Sellers,Pur Category > Skincare > Moisturizers,Pur Category > Skincare > Vegan	 	 	FALSE	 	847137034771	847137034771	951111130
951155110	 	4-in-1 Correcting Primer Prep & Perfect	Diminish the appearance of pores instantly with Correcting Primer Prep & Perfect — your go-to to smooth, prime and perfect! This all-in-one primer helps blur away imperfections and is formulated with clinically proven skin-perfecting ingredients, like our proprietary Ceretin® Complex to help brighten and firm the skin’s appearance instantly and over time. Easy to blend and silky smooth, Correcting Primer Prep & Perfect serves as a canvas after your skincare routine to create a smooth makeup application. This primer blends in easily for a natural-looking complexion. The cruelty-free, lightweight formula is a dream for flawless-looking skin that’s filter-free. It’s the same formula you’ve always loved, but with a fresh, new, modern look.	https://www.purcosmetics.com/4-in-1-correcting-primer-prep-and-perfect?utm_source=google_shopping	https://www.purcosmetics.com/media/catalog/product/c/o/correcting-primer-prep-perfect-capon-1floz-72dpi.jpg	https://www.purcosmetics.com/media/catalog/product/c/o/correcting-primer-prep-perfect-swatch-72dpi.jpg	33.00 USD	 	 	out of stock	0.04 lb	Pur Cosmetics	951155110	new	Pur Category > Makeup > Face > Primer,Pur Category > Makeup > Face,Pur Category > Makeup > Shop All	 	 	FALSE	 	847137035419	847137035419	951155110
951156110	 	4-in-1 Correcting Primer Dark Spot Corrector	What it is: Dark Spot Corrector is a daily Correcting Primer that helps even out overall skin tone by smoothing away the look of imperfections while acting as a canvas for your makeup. What it does: Flawless-looking skin can easily be yours. Neutralize the look of dark circles, age spots, freckles and uneven skin tone with perfectly peach-toned Dark Spot Corrector that is universally flattering. The perfect prep for makeup, this vegan-friendly Correcting Primer can help brighten and firm the skin's appearance for an instant youthful-looking glow that lasts. The lightweight, silky formula glides on effortlessly to smooth away the look of lines and minimize the appearance of pores with clinically proven skin care technology like our hydrating Ceretin® Complex and soothing Aloe Vera. Great for all skin types, Correcting Primer Dark Spot Corrector indulges your skin while creating a canvas for your makeup. It’s the same formula you’ve always loved, but with a fresh, new, modern look.	https://www.purcosmetics.com/4-in-1-correcting-primer-dark-spot-corrector?utm_source=google_shopping	https://www.purcosmetics.com/media/catalog/product/c/o/correcting-primer-dark-spot-corrector-capon-1floz-72dpi.jpg	https://www.purcosmetics.com/media/catalog/product/c/o/correcting-primer-dark-spot-corrector-swatch-72dpi.jpg,https://www.purcosmetics.com/media/catalog/product/4/i/4in1-correcting-primers_1000x1000_3.jpg	33.00 USD	 	 	in stock	0.04 lb	Pur Cosmetics	951156110	new	Pur Category > Makeup > Face > Primer,Pur Category > Makeup > Face,Pur Category > Makeup > Shop All	 	 	FALSE	 	847137035433	847137035433	951156110
951157060	 	Sweet 16 MASK-querade Gold Confetti Hydrating Sheet Mask Set	What it is: Set of 6 limited-edition MASK-querade Gold Confetti Soothing Sheet Masks that intensely hydrate and brighten skin’s appearance for visibly plumper-looking skin. What it does: What better way to celebrate PÜR's sweet 16 brand anniversary than with a masquerade! This premium, limited-edition, clean MASK-querade Gold Confetti Soothing Sheet Mask set instantly hydrates to awaken and brighten skin’s appearance for a healthier, youthful-looking complexion that glows. Saturated with ingredients rich in antioxidants, like Blueberry Fruit Extract, this luxurious gold face mask set of 6 helps reduce the signs of aging. Soothing ingredients such as Aloe, Vitamin E and PÜR’s Energy Complex, consisting of green tea and ginseng, deliver nutrients to reduce the appearance of redness due to dull, dry skin. The premium ingredients in the MASK-querade face masks seamlessly soak into tired skin to help rejuvenate and boost radiance for a complexion that shines. Each of the 6 transforming	https://www.purcosmetics.com/mask-querade-gold-confetti-hydrating-sheet-mask-set?utm_source=google_shopping	https://www.purcosmetics.com/media/catalog/product/m/a/mask-querade-golden-mask_rendered.jpg	https://www.purcosmetics.com/media/catalog/product/5/1/5150.jpg	36.00 USD	 	 	in stock	0.00 lb	Pur Cosmetics	951157060	new	Pur Category > Skincare > Masks,Pur Category > Makeup > Shop All,Pur Category > Skincare > Shop All	 	 	FALSE	 	847137035853	847137035853	951157060
951157110	 	4-in-1 Correcting Primer Redness Reducer	Instantly brighten and firm the skin’s appearance, while neutralizing the look of redness from breakouts, irritation and more in one simple step. Cruelty-free Correcting Primer Redness Reducer features a green hue that has been proven to offset the look of redness and uneven skin tone. Great for all skin types, the primer acts as a silky canvas for flawless makeup application… it’s the perfect daily prep to cancel out your complexion concerns. The vegan-friendly, color-correcting Redness Reducer Primer is a multitasking hero. Infused with our proprietary Ceretin® Complex, Correcting Primer Redness Reducer helps create a more uniform-looking skin tone and helps disguise pores. It’s the same formula you’ve always loved, just with a fresh new look!	https://www.purcosmetics.com/4-in-1-correcting-primer-redness-reducer?utm_source=google_shopping	https://www.purcosmetics.com/media/catalog/product/c/o/correcting-primer-redness-reducer-capon-1floz-72dpi.jpg	https://www.purcosmetics.com/media/catalog/product/c/o/correcting-primer-rednessreducer-swatch-72dpi.jpg,https://www.purcosmetics.com/media/catalog/product/4/i/4in1-correcting-primers_1000x1000_3_1.jpg	33.00 USD	 	 	in stock	0.04 lb	Pur Cosmetics	951157110	new	Pur Category > Makeup > Face > Primer,Pur Category > Makeup > Face,Pur Category > Makeup > Shop All	 	 	FALSE	 	847137035457	847137035457	951157110
951158110	 	4-in-1 Correcting Primer Hydrate & Balance	Mattify your makeup looks and help create a more balanced-looking skin tone with PÜR’s Hydrate & Balance Correcting Primer. Oil-free and silicone-free, this primer is the perfect mattifying and moisturizing makeup prep for those with acne-out prone skin. Hydrate & Balance primer features an intensely calming lavender extract and PÜR’s proprietary Ceretin® Complex in a soft lavender hue that offsets the look of uneven skin tone. Providing up to 72 hours of pure hydration, this cruelty-free, daily Correcting Primer helps create a mattified makeup look free of the appearance of discoloration. Its lightweight, mattifying texture acts as a moisturizing barrier between skin and makeup for long-lasting results on all skin tones. It’s the same formula you’ve always loved, but with a fresh, new look.	https://www.purcosmetics.com/4-in-1-correcting-primer-hydrate-balance?utm_source=google_shopping	https://www.purcosmetics.com/media/catalog/product/c/o/correcting-primer-hydrate-balance-capon-1floz-72dpi.jpg	https://www.purcosmetics.com/media/catalog/product/c/o/correcting-primer-hydrate-balance-swatch-72dpi.jpg,https://www.purcosmetics.com/media/catalog/product/4/i/4in1-correcting-primers_1000x1000_3_2.jpg	33.00 USD	 	 	in stock	0.04 lb	Pur Cosmetics	951158110	new	Pur Category > Makeup > Face > Primer,Pur Category > Makeup > Face,Pur Category > Makeup > Shop All	 	 	FALSE	 	847137035471	847137035471	951158110
951336020	 	Bronzing Act Matte Bronzer in Dark	What it is: Bronzing Act is a Skin-Perfecting Matte Bronzer in a buildable and blendable dark shade that delivers a natural-looking radiance. What it does: A fresh, sun-kissed glow looks good on you! Jumpstart the sunshine and get glowing with this skin-nourishing, ultra-matte Bronzing Act Matte Dark Bronzer that smells as good as it looks. Infused with our skin-perfecting, good-for-your-skin Ceretin®, and Energy Complexes, Bronzing Act Bronzer helps brighten the look of your complexion for a subtle, all-over warmth that radiates—it’s the ultimate matte-over. Highly blendable and buildable, this long-lasting Skin-Perfecting Powder delivers a natural-looking glow and easily doubles as a contour to create depth and dimension. Use Bronzing Act to fake a healthy-looking tan or to chisel and shape the face and body to create the illusion of incredible definition. Designed with a mosaic of medium and dark tone hues, it's the perfect bronzer for medium to dark complexions.	https://www.purcosmetics.com/bronzing-act-skin-perfecting-powder-in-dark?utm_source=google_shopping	https://www.purcosmetics.com/media/catalog/product/s/k/skin-perfecting-powder_bronzing-act-dark_open_72dpi.jpg	https://www.purcosmetics.com/media/catalog/product/m/a/matt_bronzers_dark.jpg,https://www.purcosmetics.com/media/catalog/product/s/k/skin-perfecting-powder_bronzing-act-dark_open-angled_72dpi.jpg,https://www.purcosmetics.com/media/catalog/product/s/k/skin-perfecting-powder_bronzing-act-dark_swatch_72dpi.jpg,https://www.purcosmetics.com/media/catalog/product/s/k/skin-perfecting-powder_bronzing-act-dark_closed_72dpi.jpg	26.00 USD	 	 	in stock	0.12 lb	Pur Cosmetics	951336020	new	Pur Category > Makeup > Face > Powder,Pur Category > Makeup > Cheeks > Bronzer & Contour,Pur Category > Makeup > Cheeks	 	 	FALSE	 	847137027315	847137027315	951336020
951336030	 	Afterglow Highlighting Skin Perfecting Powder	What it is: Afterglow Skin-Perfecting Powder is an illuminating highlighter that’s infused with good-for-your-skin ingredients for a natural-looking lit-from-within radiance or megawatt glow. What it does: Hi, gorgeous! Where did you get that luminous glow? Instantly perk up your skin as you brighten up your complexion and reap the benefits of the reflective-rich, illuminating effects of Skin-Perfecting Afterglow Highlighter Powder. Enriched with skin-loving ingredients, Afterglow Highlighting Powder is specially formulated with skin-perfecting Ceretin® Complex plus skin-nourishing Energy Complex. Sheer and ultra-soft to the touch, vegan-friendly Afterglow Powder offers a silky, universal glow that quickly brightens the appearance of your skin for an understated strobe effect. Perfect for day or night, a light dusting of Afterglow Powder can quickly brighten up the look of skin— it's an everyday complexion pick-me-up! Extremely blendable and lightweight, the dual-use formula can be	https://www.purcosmetics.com/afterglow-highlighter-skin-perfecting-powder?utm_source=google_shopping	https://www.purcosmetics.com/media/catalog/product/s/k/skin-perfecting-powder_afterglow_open_72dpi.jpg	https://www.purcosmetics.com/media/catalog/product/m/o/model_1.jpg,https://www.purcosmetics.com/media/catalog/product/s/k/skin-perfecting-powder_afterglow_open-angled_72dpi.jpg,https://www.purcosmetics.com/media/catalog/product/s/k/skin-perfecting-powder_afterglow_swatch_72dpi.jpg,https://www.purcosmetics.com/media/catalog/product/m/o/model_2_1.jpg,https://www.purcosmetics.com/media/catalog/product/m/o/model_3_1.jpg,https://www.purcosmetics.com/media/catalog/product/c/a/capture-one-session0286-1_1.jpg	26.00 USD	 	 	in stock	0.14 lb	Pur Cosmetics	951336030	new	Pur Category > Makeup > Face > Powder,Pur Category > Makeup > Cheeks > Highlighter,Pur Category > Makeup > Cheeks	 	 	FALSE	 	847137027322	847137027322	951336030
951336040	 	Balancing Act Mattifying Skin Perfecting Powder	What it is: Balancing Act is a translucent Skin-Perfecting and Mattifying Shine Control Powder that keeps shine at bay and blurs the appearance of pores and imperfections without adding coverage. What it does: Balanced skin feels closer than ever, thanks to Balancing Act. The unsung hero of any makeup routine, this sheer, Mattifying Shine Control Face Powder seamlessly keeps shine at bay without adding coverage. You’ll love the versatility of the dual-use formula that subtly blends into skin to keep it flawlessly matte. Plus, this translucent face powder contains our skin-perfecting Ceretin® Complex and skin-nourishing Energy Complex that’s made from a delicious combination of green tea, ginseng and vitamin B. Designed with a mosaic of neutral hues suitable for all skin tones, Balancing Act is a genius at helping to keep excess oil at bay. Use powder alone to mattify the look of the skin, blur the appearance of pores and imperfections and minimize the look of fine lines. Apply the	https://www.purcosmetics.com/balancing-act-mattifying-shine-control-skin-perfecting-powder?utm_source=google_shopping	https://www.purcosmetics.com/media/catalog/product/s/k/skin-perfecting-powder_balancing-act_open_72dpi.jpg	https://www.purcosmetics.com/media/catalog/product/b/a/balacning_act_model_1.jpg,https://www.purcosmetics.com/media/catalog/product/s/k/skin-perfecting-powder_balancing-act_open-angled_72dpi.jpg,https://www.purcosmetics.com/media/catalog/product/s/k/skin-perfecting-powder_balancing-act_powder_swatch_72dpi.jpg,https://www.purcosmetics.com/media/catalog/product/b/a/balacning_act_model_3.jpg,https://www.purcosmetics.com/media/catalog/product/b/a/balacning_act_model_2.jpg,https://www.purcosmetics.com/media/catalog/product/b/a/balacning_act_model_5.jpg	26.00 USD	 	 	in stock	0.16 lb	Pur Cosmetics	951336040	new	Pur Category > Makeup > Face > Powder,Pur Category > Makeup > Face,Pur Category > Makeup > Shop All	 	 	FALSE	 	847137027339	847137027339	951336040
951336050	 	Mineral Glow Illuminating Bronzer Skin Perfecting Powder	What it is: Skin-Perfecting Mineral Glow Powder is a universally-flattering Illuminating Bronzer that gives you a healthy, sun-kissed glow without ever looking unnatural.  What it does: Channel your inner bronzed beach babe with an instant pick-me-up that will have you looking fresh-faced and glowing. Our cult-classic Mineral Glow gives you that healthy-looking, just-back-from-the-beach radiance all year long without damaging skin. The luminous, universally-flattering skin-perfecting powder adds a golden, sun-kissed sheen to the skin for an enviably warm glow that’s long-lasting and never orange or glittery. The dual-use vegan formula is buildable and can easily double as an everyday contour. Infused with powerful antioxidants and good-for-your-skin ingredients, like our skin-perfecting Ceretin® Complex and skin-nourishing Energy Complex, Mineral Glow keeps skin looking healthy and radiant with or without makeup. Compact and easy to use, it's the perfect finishing powder to add warmth	https://www.purcosmetics.com/mineral-glow-skin-perfecting-powder?utm_source=google_shopping	https://www.purcosmetics.com/media/catalog/product/s/k/skin-perfecting-powder_mineral-glow_open_72dpi.jpg	https://www.purcosmetics.com/media/catalog/product/m/o/model_2.jpg,https://www.purcosmetics.com/media/catalog/product/s/k/skin-perfecting-powder_mineral-glow_open-angled_72dpi.jpg,https://www.purcosmetics.com/media/catalog/product/s/k/skin-perfecting-powder_mineral-glow_swatch_72dpi.jpg,https://www.purcosmetics.com/media/catalog/product/s/k/skin-perfecting-powder_mineral-glow_closed_72dpi.jpg,https://www.purcosmetics.com/media/catalog/product/m/o/model_3.jpg,https://www.purcosmetics.com/media/catalog/product/c/a/capture-one-session0286-1.jpg	26.00 USD	 	 	in stock	0.00 lb	Pur Cosmetics	951336050	new	Pur Category > Makeup > Face > Powder,Pur Category > Makeup > Cheeks > Bronzer & Contour,Pur Category > Makeup > Cheeks	 	 	FALSE	 	847137027346	847137027346	951336050
951550480	 	Sweet 16 Kiss of Confidence Lipstick Trio + Lip Balm Set	What it is: A limited-edition 'Sweet 16' Lipstick Trio + Lip Balm Set of 3 full-sized, lip-plumping lipsticks and a hydrating lip balm that conditions for a Kiss of Confidence. What it does: Give some lip with ultra-creamy, color-boosting Kiss of Confidence Lipstick Trio + Lip Balm Set. Part of our Sweet 16 brand anniversary collection, the perfectly portable 4-piece Kiss of Confidence lip kit features a hydrating lip balm and 3 full-size, highly pigmented, vegan lipsticks for a universally flattering, color-splashing payoff that lasts. Indulgent, lip-plumping lipsticks are enriched with moisturizing Agave and Vitamin E so lips stay hydrated and conditioned. Soft lips are here to stay—use the included moisture-rich lip balm to prime and soften lips before lipstick application or to treat and condition lips once the lipstick comes off. Plus, PÜR products are always cruelty-free! The fun confetti packaging is inspired by our celebratory mood. 	https://www.purcosmetics.com/kiss-of-confidence-sweet-16-lipstick-trio-lip-balm-set?utm_source=google_shopping	https://www.purcosmetics.com/media/catalog/product/k/i/kiss-of-confidence-all-open-72dpi.jpg	https://www.purcosmetics.com/media/catalog/product/k/i/kiss-of-confidence-all-bullets-72dpi.jpg,https://www.purcosmetics.com/media/catalog/product/5/1/5107.jpg,https://www.purcosmetics.com/media/catalog/product/5/0/5026.jpg,https://www.purcosmetics.com/media/catalog/product/o/m/omw_72dpi.jpg,https://www.purcosmetics.com/media/catalog/product/g/u/guestlist_72dpi.jpg,https://www.purcosmetics.com/media/catalog/product/r/u/runninglate_72dpi.jpg	28.00 USD	 	 	in stock	0.27 lb	Pur Cosmetics	951550480	new	Pur Category > Makeup > Lips,Pur Category > Makeup > Kits,Pur Category > Makeup > Shop All	 	 	FALSE	 	847137035563	847137035563	951550480
951680050	 	Sweet 16 Party Essentials 5pc Limited-Edition Cruelty-Free Skin	What it is: Party Essentials Brush Set is a Limited-Edition, Cruelty-Free, Skin-Perfecting Brush Set with 5 premium, vegan makeup spoon brushes that apply and blend products effortlessly into the skin for flawless, no-tug application. What it does: A better beauty experience is yours with this high-quality PÜR Party Essentials Brush Set. Part of PÜR's 'Sweet 16' birthday celebration, this 5pc Limited-Edition, Cruelty-Free, Skin-Perfecting Brush Set has every brush tool you need for perfect skincare and makeup application! This must-have Party Essentials Brush Set includes 5 luxurious, skin-perfecting spoon skincare and makeup brushes that apply and blend products effortlessly into the skin for a flawless application. Quickly apply your favorite skincare, complexion makeup, eyeshadows and eyeliners evenly with ultimate control and precision. Each vegan spoon skincare and makeup brush is densely packed with premium soft, synthetic bristles that glide over the face, eyes, and décolletage	https://www.purcosmetics.com/sweet-16-party-essentials-5pc-limited-edition-cruelty-free-skin-perfecting-brush-set?utm_source=google_shopping	https://www.purcosmetics.com/media/catalog/product/p/a/party-essential-brushes-72-dpi.jpg	https://www.purcosmetics.com/media/catalog/product/p/-/p-114.jpg,https://www.purcosmetics.com/media/catalog/product/p/-/p-96.jpg	39.00 USD	 	 	in stock	0.33 lb	Pur Cosmetics	951680050	new	Pur Category > Makeup > Brushes & Tools,Pur Category > Makeup > Shop All,Pur Category > Makeup	 	 	FALSE	 	847137036119	847137036119	951680050
951745180	 	Sweet 16 Celebrate Your Selfie Blockbuster Set	What it is: Celebrate Your Selfie with this Limited-Edition 'Sweet 16’ all-in-one, 22-piece makeup essentials set celebrating PÜR’s 16th birthday! What it does: Sixteen years have never been sweeter! Create a picture-perfect makeup look with this exclusive, limited-edition, blockbuster collector's kit. The Celebrate Your Selfie set is our thank you to all our loyal PÜR enthusiasts. This beauty-junkie, must-have makeup kit is filled with all of the skincare infused makeup essentials you need to create your favorite PÜR looks—just add our award-winning 4-in-1 Pressed Mineral Makeup Foundation to complete the look.Celebrate Your Selfie makeup kit includes an eyeshadow palette of 16 gorgeous, on-trend matte, shimmer and glitter shades made with our famed silky-smooth, vegan formula. Also included: Our influencer-approved lengthening mini Fully Charged Mascara , best-selling, cruelty-free PRO Eyelashes in Diva, two blushes, a show-stopping highlighter and a high-shine lip gloss in DIY. Go	https://www.purcosmetics.com/celebrate-your-selfie-sweet-16-collectors-set?utm_source=google_shopping	https://www.purcosmetics.com/media/catalog/product/c/e/celebrate-your-selfie-open-72dpi_1.jpg	https://www.purcosmetics.com/media/catalog/product/c/e/celebrate-your-selfie-open-angled-72dpi_1.jpg,https://www.purcosmetics.com/media/catalog/product/p/-/p-124.jpg,https://www.purcosmetics.com/media/catalog/product/p/-/p-148.jpg,https://www.purcosmetics.com/media/catalog/product/c/e/celebrate-model-6.jpg,https://www.purcosmetics.com/media/catalog/product/c/e/celebrate-your-selfie-arm-swatch-72dpi.jpg,https://www.purcosmetics.com/media/catalog/product/c/e/celebrate-your-selfie-closed-72dpi_1.jpg	49.00 USD	34.00 USD	 	in stock	1.23 lb	Pur Cosmetics	951745180	new	Pur Category > Makeup > Best Sellers,Pur Category > Makeup > Eyes,Pur Category > Makeup > Kits	 	 	FALSE	 	847137035037	847137035037	951745180
951775040	 	Get This Party Started Party Prep Skincare Kit	What it is: A 4-piece, pre-party Limited-Edition 'Sweet 16' Party Prep Collection for luminous, glowing skin and stay-put makeup application — Get This Party Started! What it does: For a big night out, it’s all about the prep! Get This Party Started and speed up your skin-glowing, party prep complexion skincare routine with this Limited-Edition 'Sweet 16' Party Prep Collection—an energizing, 4-piece perfect party kit celebrating PÜR’s Sweet 16 birthday! Brighten the appearance of skin in just 16 minutes with the Gliterally Gold gel peel-off face mask. Infused with licorice extract and Vitamin C, this gel face mask helps to purify skin for a softer, healthier-looking complexion. Smooth and soothe your skin for flawless makeup application with our restoring 4-in-1 Correcting Primer that’s perfect for all skin tones. Massage skin with a few drops of hydra-charged Precious Metals Oil, a Shimmering Dry Oil Elixir that’s infused with metallic gold, rose gold and silver flakes for	https://www.purcosmetics.com/sweet-16-get-this-party-started-party-prep-collection?utm_source=google_shopping	https://www.purcosmetics.com/media/catalog/product/g/e/get-this-party-started-all-72dpi.jpg	https://www.purcosmetics.com/media/catalog/product/3/0/3099.jpg,https://www.purcosmetics.com/media/catalog/product/p/-/p-40-recovered.jpg	39.00 USD	 	 	in stock	0.39 lb	Pur Cosmetics	951775040	new	Pur Category > Skincare > Kits,Pur Category > Makeup > Shop All,Pur Category > Skincare > Shop All	 	 	FALSE	 	847137035600	847137035600	951775040
951791130	 	Sweet 16 Life of the Party Mascara, Liner and Lash Set	What it is: Life Of The Party is a 4-piece Mascara, Liner and Lash Set featuring full-size products for a dramatic, party-ready look.  What it does: Let your eyes do the talking and start being dramatic with this celebratory Sweet 16 Collection mascara, liquid eyeliner and lash set of beauty essentials. Part of our birthday collection, Life Of The Party is a grab-and-go set for eye-crush worthy looks that take you from day to night in minutes. Define eyes with long-lasting On Point Liquid Eyeliner in VIP. Safe for sensitive eyes, this super matte, black liquid eyeliner glides on effortlessly and is enriched with Lash Rejuvenation Complex and Passion Flower Oil to prevent lash fallout and provide skin with needed moisture and precise application without smudging. Play up your lashes with our best-selling, lengthening and volumizing Fully Charged Mascara. Add fullness and length to your natural lashes with cruelty-free faux PRO eyelashes in Diva. The 3-D silk eyelashes were curated with	https://www.purcosmetics.com/sweet-16-life-of-the-party-mascara-liner-and-lash-set?utm_source=google_shopping	https://www.purcosmetics.com/media/catalog/product/l/i/life-of-the-party_72dpi.jpg	https://www.purcosmetics.com/media/catalog/product/l/i/life-of-the-party_carton-72dpi.jpg	26.00 USD	 	 	in stock	0.19 lb	Pur Cosmetics	951791130	new	Pur Category > Makeup > Eyes > Eyeliner,Pur Category > Makeup > Eyes,Pur Category > Makeup > Kits	 	 	FALSE	 	847137035693	847137035693	951791130
11824	 	Arch Nemesis 4-in-1 Dual-Ended Brow Pencil	What it is: Arch Nemesis is a 4-in-1 Dual-Ended Brow Pencil with a long-wearing formula that flatters, grooms and fills in brows precisely in three true-to-you shades. What it does: Some may argue that the eyebrows are the focal point of any look—we wholeheartedly agree. Design and define your brows with this 4-in-1 Dual-Ended Brow Pencil in three natural shades… unruly brows are no longer your Arch Nemesis! Both cruelty-free and easy to apply, this vegan 4-in-1 eyebrow pencil features two unique tips for fully customizable brows. Whether you’re going for natural and feathery or bold and beautiful, Arch Nemesis 4-in-1 Dual-Ended Brow Pencil is specifically designed for precise application and face-framing results. The small, soft tip mimics the finest of hairs, making it perfect for spot filling sparse areas. Featuring a thicker, unique triangular side, the medium tip creates natural, hair-like texture for bigger, bolder brows. Its blend of pigment ensures that this long-wearing	https://www.purcosmetics.com/arch-nemesis-4-in-1-dual-ended-brow-pencil?utm_source=google_shopping	https://www.purcosmetics.com/media/catalog/product/a/r/arch-nemesis-open-medium-coveteur-seal-72dpi.jpg	https://www.purcosmetics.com/media/catalog/product/a/r/arch-nemesis-medium-swatch-72dpi.jpg,https://www.purcosmetics.com/media/catalog/product/a/r/arch_nemsis_dark_2_copy.jpg,https://www.purcosmetics.com/media/catalog/product/a/r/arch_nemsis_group_shot.jpg	24.00 USD	 	 	in stock	0.03 lb	Pur Cosmetics	11824	new	Pur Category > Makeup > Eyes > Brows,Pur Category > Makeup > Eyes,Pur Category > Makeup > Shop All	 	 	FALSE	 	 	 	11824
951445060	11824	Arch Nemesis 4-in-1 Dual-Ended Brow Pencil in Light	What it is: Arch Nemesis is a 4-in-1 Dual-Ended Brow Pencil with a long-wearing formula that flatters, grooms and fills in brows precisely in three true-to-you shades. What it does: Some may argue that the eyebrows are the focal point of any look—we wholeheartedly agree. Design and define your brows with this 4-in-1 Dual-Ended Brow Pencil in three natural shades… unruly brows are no longer your Arch Nemesis! Both cruelty-free and easy to apply, this vegan 4-in-1 eyebrow pencil features two unique tips for fully customizable brows. Whether you’re going for natural and feathery or bold and beautiful, Arch Nemesis 4-in-1 Dual-Ended Brow Pencil is specifically designed for precise application and face-framing results. The small, soft tip mimics the finest of hairs, making it perfect for spot filling sparse areas. Featuring a thicker, unique triangular side, the medium tip creates natural, hair-like texture for bigger, bolder brows. Its blend of pigment ensures that this long-wearing	https://www.purcosmetics.com/arch-nemesis-4-in-1-dual-ended-brow-pencil?utm_source=google_shopping	https://www.purcosmetics.com/media/catalog/product/a/r/arch-nemesis-open-light-coveteur-seal-72dpi.jpg	https://www.purcosmetics.com/media/catalog/product/a/r/arch-nemesis-light-swatch-72dpi.jpg,https://www.purcosmetics.com/media/catalog/product/a/r/arch_nemsis_light_2_1.jpg,https://www.purcosmetics.com/media/catalog/product/a/r/arch_nemsis_light_1.jpg	24.00 USD	 	 	in stock	0.03 lb	Pur Cosmetics	951445060	new	Pur Category > Makeup > Eyes > Brows,Pur Category > Makeup > Eyes,Pur Category > Makeup > Shop All	 	 	FALSE	 	847137035310	847137035310	951445060
951445080	11824	Arch Nemesis 4-in-1 Dual-Ended Brow Pencil in Medium	What it is: Arch Nemesis is a 4-in-1 Dual-Ended Brow Pencil with a long-wearing formula that flatters, grooms and fills in brows precisely in three true-to-you shades. What it does: Some may argue that the eyebrows are the focal point of any look—we wholeheartedly agree. Design and define your brows with this 4-in-1 Dual-Ended Brow Pencil in three natural shades… unruly brows are no longer your Arch Nemesis! Both cruelty-free and easy to apply, this vegan 4-in-1 eyebrow pencil features two unique tips for fully customizable brows. Whether you’re going for natural and feathery or bold and beautiful, Arch Nemesis 4-in-1 Dual-Ended Brow Pencil is specifically designed for precise application and face-framing results. The small, soft tip mimics the finest of hairs, making it perfect for spot filling sparse areas. Featuring a thicker, unique triangular side, the medium tip creates natural, hair-like texture for bigger, bolder brows. Its blend of pigment ensures that this long-wearing	https://www.purcosmetics.com/arch-nemesis-4-in-1-dual-ended-brow-pencil?utm_source=google_shopping	https://www.purcosmetics.com/media/catalog/product/a/r/arch-nemesis-open-medium-coveteur-seal-72dpi_1.jpg	https://www.purcosmetics.com/media/catalog/product/a/r/arch-nemesis-medium-swatch-72dpi_1.jpg,https://www.purcosmetics.com/media/catalog/product/a/r/arch_nemsis_medium_1.jpg,https://www.purcosmetics.com/media/catalog/product/a/r/arch_nemsis_before_1.jpg,https://www.purcosmetics.com/media/catalog/product/a/r/arch_nemsis_after_1.jpg	24.00 USD	 	 	in stock	0.03 lb	Pur Cosmetics	951445080	new	Pur Category > Makeup > Eyes > Brows,Pur Category > Makeup > Eyes,Pur Category > Makeup > Shop All	 	 	FALSE	 	847137035358	847137035358	951445080
951445090	11824	Arch Nemesis 4-in-1 Dual-Ended Brow Pencil in Dark	What it is: Arch Nemesis is a 4-in-1 Dual-Ended Brow Pencil with a long-wearing formula that flatters, grooms and fills in brows precisely in three true-to-you shades. What it does: Some may argue that the eyebrows are the focal point of any look—we wholeheartedly agree. Design and define your brows with this 4-in-1 Dual-Ended Brow Pencil in three natural shades… unruly brows are no longer your Arch Nemesis! Both cruelty-free and easy to apply, this vegan 4-in-1 eyebrow pencil features two unique tips for fully customizable brows. Whether you’re going for natural and feathery or bold and beautiful, Arch Nemesis 4-in-1 Dual-Ended Brow Pencil is specifically designed for precise application and face-framing results. The small, soft tip mimics the finest of hairs, making it perfect for spot filling sparse areas. Featuring a thicker, unique triangular side, the medium tip creates natural, hair-like texture for bigger, bolder brows. Its blend of pigment ensures that this long-wearing	https://www.purcosmetics.com/arch-nemesis-4-in-1-dual-ended-brow-pencil?utm_source=google_shopping	https://www.purcosmetics.com/media/catalog/product/a/r/arch-nemesis-open-dark-coveteur-seal-72dpi.jpg	https://www.purcosmetics.com/media/catalog/product/a/r/arch-nemesis-dark-swatch-72dpi.jpg,https://www.purcosmetics.com/media/catalog/product/a/r/arch_nemsis_dark_1.jpg,https://www.purcosmetics.com/media/catalog/product/a/r/arch_nemsis_dark_2_copy_1.jpg	24.00 USD	 	 	in stock	0.03 lb	Pur Cosmetics	951445090	new	Pur Category > Makeup > Eyes > Brows,Pur Category > Makeup > Eyes,Pur Category > Makeup > Shop All	 	 	FALSE	 	847137035372	847137035372	951445090
951336010	 	Bronzing Act Matte Bronzer in Light	What it is: Bronzing Act is a Skin-Perfecting Matte Bronzer in a buildable and blendable light shade that delivers a natural-looking radiance. What it does: A fresh, sun-kissed glow looks good on you! Jumpstart the sunshine and get glowing with this skin-nourishing, ultra-matte Bronzing Act Matte Light Bronzer that smells as good as it looks. Infused with our skin-perfecting, good-for-your-skin Ceretin®, and Energy Complexes, Bronzing Act Bronzer helps brighten the look of your complexion for a subtle, all-over warmth that radiates—it’s the ultimate matte-over. Highly blendable and buildable, this long-lasting Skin-Perfecting Powder delivers a natural-looking glow and easily doubles as a contour to create depth and dimension. Use Bronzing Act to fake a healthy-looking tan or to chisel and shape the face and body to create the illusion of incredible definition. Designed with a mosaic of medium tone hues, it's the perfect bronzer for light to medium complexions.	https://www.purcosmetics.com/bronzing-act-skin-perfecting-powder-in-light?utm_source=google_shopping	https://www.purcosmetics.com/media/catalog/product/s/k/skin-perfecting-powder_bronzing-act-light_open_72dpi_1.jpg	https://www.purcosmetics.com/media/catalog/product/m/a/matt_bronzers_light.jpg,https://www.purcosmetics.com/media/catalog/product/s/k/skin-perfecting-powder_bronzing-act-light_open-angled_72dpi.jpg,https://www.purcosmetics.com/media/catalog/product/s/k/skin-perfecting-powder_bronzing-act-light_swatch_72dpi.jpg,https://www.purcosmetics.com/media/catalog/product/s/k/skin-perfecting-powder_bronzing-act-light_closed_72dpi.jpg,https://www.purcosmetics.com/media/catalog/product/s/k/skin-perfecting-powder_bronzing-act-dark_open_72dpi_2.jpg	26.00 USD	 	 	in stock	0.16 lb	Pur Cosmetics	951336010	new	Pur Category > Makeup > Face > Powder,Pur Category > Makeup > Cheeks > Bronzer & Contour,Pur Category > Makeup > Cheeks	 	 	FALSE	 	847137027285	847137027285	951336010
951745190	 	Love Your Selfie III Sweet 16 Face Palette & Mini Mascara Set	What it is: Love Your Selfie III is a 16-piece Limited-Edition 'Sweet 16' Face Palette & Mini Mascara Set with 10 silky eyeshadows, 2 glitters, a gorgeous blush, a luminous highlighter, and a radiant bronzer, each formulated with good-for-your-skin ingredients. What it does: Don’t overthink it—work your angles with Love Your Selfie III. Part of PÜR's Sweet 16 limited-edition brand anniversary collection, 'Sweet 16' Face Palette & Mini Mascara Set is an inclusive makeup palette that’s designed to thank each and every PÜR beauty that has loved the high-performance brand along the way. Embrace your natural beauty or go for a more daring, sultry look… the choice is yours in this all-in-one, 16-piece, cruelty-free makeup kit that’s sure to keep you looking chic and fresh-faced. Choose from a gorgeous mix of 10 versatile eyeshadow shades in warm and cool tones, 2 must-have shimmering glitters, a pigmented blush, a glowing highlighter, an illuminating bronzer and a deluxe Fully Charged	https://www.purcosmetics.com/love-your-selfie-3-sweet-16-face-palette-mini-mascara-set?utm_source=google_shopping	https://www.purcosmetics.com/media/catalog/product/l/o/love-your-selfie-3-fully-charged-mascara-open-72dpi_2.jpg	https://www.purcosmetics.com/media/catalog/product/l/o/love-your-selfie-arm-swatch-1-low-res_2.jpg	36.00 USD	 	 	in stock	0.00 lb	Pur Cosmetics	951745190	new	Pur Category > Makeup > Eyes,Pur Category > Makeup > Kits,Pur Category > Makeup > Palettes	 	 	FALSE	 	847137035556	847137035556	951745190
951116040	 	The Grinch™ Grinch Stole My Look Color-Changing Skin-Perfecting Clay	Change up your beauty routine with a Color-Changing Skin-Perfecting Mask and watch your mood soar! Inspired by Illumination’s sweeping new version of Dr. Seuss' The Grinch™, this peppermint-scented face mask is sure to help improve your mood — and the appearance of your skin — in just 15 color-changing minutes. Just-in-time for the holidays, this innovative Skin-Perfecting Face Mask is formulated with skin-nourishing Energy Complex and a hydrating combination of Sunflower Seed, Jojoba and Olive Oil that help moisturize the skin. Licorice and Sugarcane Extract work together to help purify and brighten the appearance of skin. As you massage it into your face, watch as this unique, feel-good, creamy face mask magically changes color from green to pink, so you know it’s working to thoroughly cleanse skin of impurities for a renewed skin appearance that radiates! Increase your glow before a party, or do damage control when you arrive home — your skin will thank you! 	https://www.purcosmetics.com/the-grinch-stole-my-look-color-changing-skin-perfecting-clay-mask?utm_source=google_shopping	https://www.purcosmetics.com/media/catalog/product/g/r/grinch-mask-2_1.jpg	https://www.purcosmetics.com/media/catalog/product/g/r/grinch-grinch-stole-my-look-carton-open-with-dot-whack_1.jpg,https://www.purcosmetics.com/media/catalog/product/g/r/grinch-mask-1-1_1.jpg,https://www.purcosmetics.com/media/catalog/product/g/r/grinch-grinch-stole-my-look-tube-with-dot-whack_1.jpg,https://www.purcosmetics.com/media/catalog/product/g/r/grinch-mask_1.jpg,https://www.purcosmetics.com/media/catalog/product/g/r/grinch-stole-my-look-1-72dpi-1200x1200_1.jpg,https://www.purcosmetics.com/media/catalog/product/g/r/grinch-stole-my-look-2-72dpi-1200x1200_1.jpg	29.00 USD	20.00 USD	2018-12-18T00:00:00-05:00/2020-03-05T23:59:59-05:00	in stock	0.49 lb	Pur Cosmetics	951116040	new	Pur Category > Skincare > Masks,Pur Category > Skincare > Vegan,Pur Category > Makeup > Shop All	 	 	FALSE	 	847137035792	847137035792	951116040
951680040	 	The Grinch™ He Hates It, You'll Love It 5-Piece Brush Set	AS SEEN IN... POPSUGAR • TEEN VOGUE   What it is: Illumination Presents Dr. Seuss' The Grinch™ He Hates It, You'll Love It—a festive 5-Piece Cruelty-Free Brush Set designed for flawless makeup application. A $121 Value! What it does: Be your own storyteller this Holiday season with this festive 5-piece Cruelty-Free Brush set. Inspired by Illumination’s sweeping new version of Dr. Seuss' The Grinch™, this travel-friendly makeup brush set was designed to cover every beauty application need, flawlessly—apply all your favorite cosmetics with flair. Let your favorite features stand out or choose to conceal, this exclusive makeup brush collection features 5 quality, cruelty-free makeup brushes that are designed for precise, easy application of powder, foundation, concealer, eyeshadow, and eyeliner. Take your holiday glam from innocent, daytime looks to dramatic, mischievous looks with this compact, celebratory makeup brush set with unique, gold-swirl handles for a fun look with precise	https://www.purcosmetics.com/the-grinch-he-hates-it-youll-love-it-5-piece-brush-set?utm_source=google_shopping	https://www.purcosmetics.com/media/catalog/product/g/r/grinch-he-hates-it-youll-love-it-bag-brushes-with-dot-whack_2.jpg	https://www.purcosmetics.com/media/catalog/product/g/r/grinch-he-hates-it-youll-love-it-brushes_1.jpg,https://www.purcosmetics.com/media/catalog/product/g/r/grinch-brush-kit-3-72dpi-1400x1000_1.jpg,https://www.purcosmetics.com/media/catalog/product/g/r/grinch-brush-kit-4-72dpi-1400x1000_1.jpg,https://www.purcosmetics.com/media/catalog/product/g/r/grinch-brush-kit-model-3-72dpi-1200x1200_1.jpg,https://www.purcosmetics.com/media/catalog/product/g/r/grinch-brush-kit-model-1-72dpi-1400x1000_1.jpg,https://www.purcosmetics.com/media/catalog/product/g/r/grinch-brush-kit-model-2-72dpi-1400x1000_1.jpg	38.00 USD	19.00 USD	2018-12-18T00:00:00-05:00/2020-03-05T23:59:59-05:00	in stock	0.32 lb	Pur Cosmetics	951680040	new	Pur Category > Makeup > Brushes & Tools,Pur Category > Makeup > Kits,Pur Category > Makeup > Shop All	 	 	FALSE	 	847137035785	847137035785	951680040
951745080	 	Midnight Masquerade Face Palette	What it is: Midnight Masquerade is a highly pigmented, limited-edition 10-piece face palette with everything you need to transform your look and reveal your true beauty.  What it does: There’s nothing to mask here! Unveil endless beauty looks with Midnight Masquerade, a 10-piece good-for-your-skin face palette that easily takes any look from natural and innocent to sultry and mysterious. Perfect for every makeup newbie or maven, this limited-edition PÜR palette is arranged with highly pigmented and buildable matte and shimmer shades that blend effortlessly into the face and eyelids for endless full-face looks that stand out. Making a bold statement has never been easier with four, shimmery face powders and six buttery, soft-to-the-skin eyeshadows that complement all skin tones and eye colors. Uncover your true creative side with this unique shade range with a finely milled formula that makes for a flawless application. Infused with our Energy Complex of ginseng, vitamin B and green	https://www.purcosmetics.com/midnight-masquerade-face-eyeshadow-palette?utm_source=google_shopping	https://www.purcosmetics.com/media/catalog/product/m/i/midnight_masquerade_open_72dpi_1.jpg	https://www.purcosmetics.com/media/catalog/product/m/i/midnight_masquerade_closed_72dpi_1.jpg,https://www.purcosmetics.com/media/catalog/product/m/i/midnight_masquerade_2_1.jpg,https://www.purcosmetics.com/media/catalog/product/m/i/midnight_masquerade_arm_swatch_copy_1.jpg,https://www.purcosmetics.com/media/catalog/product/m/i/midnight_mascarade_3.jpg,https://www.purcosmetics.com/media/catalog/product/m/i/midnight_mascarade_2.jpg	38.00 USD	26.00 USD	2019-01-03T00:00:00-05:00/2020-03-05T23:59:59-05:00	in stock	0.29 lb	Pur Cosmetics	951745080	new	Pur Category > Makeup > Cheeks > Blush,Pur Category > Makeup > Eyes > Eyeshadow,Pur Category > Makeup > Cheeks > Highlighter	 	 	FALSE	 	847137037222	847137037222	951745080
951745120	 	The Grinch™ Good Enough to Steal Face Palette & Color-Changing Lip	AS SEEN IN... POPSUGAR • TEEN VOGUE  What it is: Illumination Presents Dr. Seuss' The Grinch™ Good Enough to Steal is a 12-Piece Collector's Face Palette & Color-Changing Lip Balm Set with good-for-your-skin ingredients. A $198 Value! What it does: Explore limitless makeup possibilities in this festive 12-Piece Collector's Face Palette & Color-Changing Lip Balm Set. Inspired by Illumination’s sweeping new version of Dr. Seuss' The Grinch™ this eye-catching, multi-use makeup palette and set of 10 silky smooth eyeshadows, a light-catching highlighter, rosy blush, and color-changing lip balm make it easy to change your makeup look whenever you change your mind. Show off your holiday cheer and sparkle with a cheeky, radiant glow and a pop of color… it’s easy with the included Feeling Frosty Highlighter and Heart of a Who Blush. Create endless eye looks that stay luxe with the 10-piece highly pigmented eyeshadow palette in an assortment of festive, on-trend matte, shimmer and glitter shades	https://www.purcosmetics.com/dr-seuss-the-grinch-good-enough-to-steal-collectors-face-palette-color-changing-lip-balm-set?utm_source=google_shopping	https://www.purcosmetics.com/media/catalog/product/g/r/grinch-good-enough-to-steal-opentray-with-dot-whack_2.jpg	https://www.purcosmetics.com/media/catalog/product/g/r/grinch-good-enough-to-steal-palette-with-dot-whack_2.jpg,https://www.purcosmetics.com/media/catalog/product/g/r/grinch-good-enough-to-steal-arm-swatch-72dpi_1.jpg,https://www.purcosmetics.com/media/catalog/product/g/r/grinch-good-enough-to-steal-lipstick-with-dot-whack_2.jpg,https://www.purcosmetics.com/media/catalog/product/g/r/grinch-stole-my-look-swatch-tree-72dpi_1.jpg,https://www.purcosmetics.com/media/catalog/product/g/r/grinch-good-enough-to-steal-model-4-72dpi-1200x1200_1.jpg,https://www.purcosmetics.com/media/catalog/product/g/r/grinch-good-enough-to-steal-model-1-72dpi-1200x1200_2.jpg,https://www.purcosmetics.com/media/catalog/product/g/r/grinch-good-enough-to-steal-model-2-72dpi-1200x1200_1.jpg,https://www.purcosmetics.com/media/catalog/product/g/r/grinch-good-enough-to-steal-model-3-72dpi-1200x1200_1.jpg,https://www.purcosmetics.com/media/catalog/product/g/r/grinch-good-enough-to-steal-model-7-72dpi-1400x1000_1.jpg	42.00 USD	21.00 USD	2018-12-18T00:00:00-05:00/2020-03-05T23:59:59-05:00	in stock	1.29 lb	Pur Cosmetics	951745120	new	Pur Category > Makeup > Eyes > Eyeshadow,Pur Category > Makeup > Eyes,Pur Category > Makeup > Kits	 	 	FALSE	 	847137035624	847137035624	951745120
951775050	 	The Grinch™ Beware of Perfection 4-Piece Mask Sampler Gift Set	AS SEEN IN... POPSUGAR • TEEN VOGUE What it is: Illumination Presents Dr. Seuss' The Grinch™ Beware of Perfection—a 4-Piece Face Mask Sampler Gift Set that is specially formulated to target unique skin concerns by clarifying impurities and refreshing tired skin for a more youthful-looking appearance. What it does: This holiday season, vow to make time for yourself and indulge! Inspired by Illumination’s sweeping new version of Dr. Seuss' The Grinch™, this assorted 4-Piece Mask Sampler Gift Set is enriched with natural ingredients to help deliver a more youthful appearance that radiates. Replenish your skin, one mask at a time in under 16 minutes—or multi-mask and mix and match! Festively packaged in ornamental holiday bulbs, hydrating Soak It Up, Glitterally Gold Brightening Peel-Off Mask, Purple Pore Punisher and exfoliating Dirty Girl face mask each help cleanse, purify and hydrate dull, fatigued skin for transforming, lively results just-in-time for the holiday season. Gift this	https://www.purcosmetics.com/the-grinch-beware-of-perfection-4-piece-mask-sampler-gift-set?utm_source=google_shopping	https://www.purcosmetics.com/media/catalog/product/g/r/grinch-beware-of-perfection-with-dot-whack_1.jpg	https://www.purcosmetics.com/media/catalog/product/p/u/pur_social_media_08-31-2018-300dpi-127.jpg,https://www.purcosmetics.com/media/catalog/product/b/e/beware-of-perfection-model--3-pdp-72dpi-1200x1200.jpg,https://www.purcosmetics.com/media/catalog/product/b/e/beware-of-perfection-model-pdp-72dpi-1200x1200_1.jpg,https://www.purcosmetics.com/media/catalog/product/b/e/beware-of-perfection-model--1-pdp-72dpi-1200x1200_1.jpg,https://www.purcosmetics.com/media/catalog/product/b/e/beware-of-perfection-model--2-pdp-72dpi-1200x1200_1.jpg	28.00 USD	14.00 USD	2018-12-18T00:00:00-05:00/2020-03-05T23:59:59-05:00	in stock	0.49 lb	Pur Cosmetics	951775050	new	Pur Category > Makeup > Kits,Pur Category > Skincare > Masks,Pur Category > Skincare > Kits	 	 	FALSE	 	847137035679	847137035679	951775050
951775060	 	The Grinch™ Heart Line 4-Piece Liquid Eyeliner Set	AS SEEN IN... POPSUGAR • TEEN VOGUE   What it is: Illumination Presents Dr. Seuss' The Grinch™ Heart Line is a festive, highly pigmented 4-Piece Eyeliner Set with good-for-your skin ingredients. What it does: Experiment with bold shades and open your eyes to a world of possibilities with these four colorful Heart Line liquid eyeliners that will liven up your eyes with versatile thin to thick, classic to winged looks—just in time for the holiday season! Inspired by Illumination’s sweeping new version of Dr. Seuss' The Grinch™, this festive 4-Piece Liquid Eyeliner Set comes in 4 bold shades (green, white, red and black), each formulated with skin-soothing Vitamin E. An eyeliner that’s also good for your skin—it’s eye opening! Highly pigmented for intense color release, these versatile, fragrance-free liquid eyeliners are heavy on performance as they glide on smoothly with ease, gently defining each eye with smudge-free precision. The ultra-thin brush-tip allows maximum control for crisp,	https://www.purcosmetics.com/the-grinch-heart-line-4-piece-liquid-eyeliner-set?utm_source=google_shopping	https://www.purcosmetics.com/media/catalog/product/g/r/grinch-heartline-open-with-dot-whack_1.jpg	https://www.purcosmetics.com/media/catalog/product/g/r/grinch-heartline-closed-with-dot-whack_1.jpg,https://www.purcosmetics.com/media/catalog/product/g/r/grinch-heartline-all-1200x1200-72dpi_1.jpg,https://www.purcosmetics.com/media/catalog/product/p/u/purcosmetics-1593_1.jpg,https://www.purcosmetics.com/media/catalog/product/p/u/purcosmetics-1619_1.jpg,https://www.purcosmetics.com/media/catalog/product/g/r/grinch-heartline-great-with-name-1200x1200-72dpi.jpg	28.00 USD	14.00 USD	2018-12-18T00:00:00-05:00/2020-03-05T23:59:59-05:00	in stock	0.24 lb	Pur Cosmetics	951775060	new	Pur Category > Makeup > Eyes > Eyeliner,Pur Category > Makeup > Eyes,Pur Category > Makeup > Kits	 	 	FALSE	 	847137035778	847137035778	951775060
11826	 	TRY PÜR! 4-in-1 Pressed Mineral Makeup and Brush Kit	Make your skin look its best with the TRY PÜR! 4-in-1 Pressed Mineral Makeup and Brush Kit for only $19, an incredible $50 value! With the award-winning, vegan PÜR 4-in-1 Pressed Mineral Makeup SPF 15 powder foundation and Chisel Brush, you’re only 60 seconds from flawless coverage and 60 days to an enhanced complexion — it’s pressed mineral foundation in 11 natural-looking, silky soft and smooth shades… all of which are free of harsh chemical dyes, oils or parabens and have never been tested on animals. A continual PÜR best-seller that’s adored worldwide, this versatile, 4-in-1 foundation, concealer, powder and SPF 15 has been clinically proven to correct, prevent and interrupt your biggest skin concerns, even after the makeup comes off and won’t settle into fine lines like other traditional powders… over 10 million compacts sold! The added bonus? The lightweight feel and no-mess, no-stress application. Use the included professional cruelty-free Chisel Makeup Brush to buff this	https://www.purcosmetics.com/try-pur-4-in-1-pressed-mineral-makeup-and-brush-kit?utm_source=google_shopping	https://www.purcosmetics.com/media/catalog/product/4/-/4-in-1-mineral-makeup-chisel-brush-seal-golden-medium-72dpi.jpg	https://www.purcosmetics.com/media/catalog/product/p/u/purcosmetics5674_1.jpg,https://www.purcosmetics.com/media/catalog/product/c/r/crushed_powders_copy.jpg	19.00 USD	 	 	in stock	 	Pur Cosmetics	11826	new	 	 	 	FALSE	 	 	 	11826
951745130	 	Be Your Selfie Eyeshadow Palette	Unapologetically Be Your Selfie with this 9-piece, limited-edition, hand-picked eyeshadow makeup palette that was made with neutral eyeshadow lovers in mind! From warm, brown tones to shimmery golds, this must-have Eyeshadow Palette features highly pigmented matte and shimmer eyeshadow shades that provide maximum payoff with just one swipe. Formulated with antioxidant-rich Coconut Oil and skin-nourishing Energy Complex that’s made from a combination of Green Tea, Ginseng and B vitamins, Be Your Selfie Eyeshadow Palette instantly compliments any eye color or skin tone, while delivering good-for-your-skin nutrients. Create any eye look that matches your style with four, velvety matte shades and five shimmer shades that easily blend into the skin for a flawless look. Whether you’re creating natural daytime looks or a sultry glamorous glow, watch as each sweet-smelling, blendable Be Your Selfie eyeshadow shade takes your eyes to the next selfie level — your Instagram photos will thank us!	https://www.purcosmetics.com/be-your-selfie-eyeshadow-palette?utm_source=google_shopping	https://www.purcosmetics.com/media/catalog/product/p/u/pur_be-your-selfie-open-straight-lr.jpg	https://www.purcosmetics.com/media/catalog/product/b/e/be_your_selfie_open_side_72dpi.jpg,https://www.purcosmetics.com/media/catalog/product/4/5/4552.jpg,https://www.purcosmetics.com/media/catalog/product/4/3/4335.jpg,https://www.purcosmetics.com/media/catalog/product/4/2/4215.jpg,https://www.purcosmetics.com/media/catalog/product/4/2/4293.jpg	36.00 USD	 	 	in stock	0.24 lb	Pur Cosmetics	951745130	new	Pur Category > Makeup > Eyes > Eyeshadow,Pur Category > Makeup > Eyes,Pur Category > Makeup > Palettes	 	 	FALSE	 	847137037093	847137037093	951745130
8888121	 	Deluxe Mystery Bag	The secret is out, and we can’t wait to share it with you! We curated this deluxe mystery bag to tantalize beauty junkies and beginners alike with the best-of-the-best PUR makeup and brush essentials. Treat yourself to 7 full-size, high-impact self-care beauty surprises that you’ll reach for every day. This limited-edition mystery set is a great way to try new makeup products and professional brushes without the big price tag! If you’re looking for the perfect makeup brushes and a cult-favorite, ingredient-conscious palette with a luxe feel and highly pigmented, blendable shadows that look great on all skin tones, this is the mystery bag for you. High-quality, full-size eye and lip items that are practical, on-trend and always cruelty free… yes, please. Don’t miss out! This must-have beauty collection, at such a low price, won’t be around long! Excluded from promotions.	https://www.purcosmetics.com/deluxe-mystery-bag?utm_source=google_shopping	https://www.purcosmetics.com/media/catalog/product/d/e/deluxe-mystery-bag-silhouette-whitebg.jpg	https://www.purcosmetics.com/media/catalog/product/d/e/deluxe-mystery-bag-silhouette-pinkbg.jpg	40.00 USD	 	 	in stock	0.00 lb	Pur Cosmetics	8888121	new	Pur Category > Makeup > Kits,Pur Category > Sale,Pur Category	 	 	FALSE	 	847137040734	847137040734	8888121
8888122	 	Mystery Bag	The secret is out, and we can’t wait to share it with you! We curated this mystery bag to tantalize beauty junkies and beginners alike with the best-of-the-best PUR makeup and brush essentials. Treat yourself to 5 full-size, high-impact self-care beauty surprises that you’ll reach for every day. This limited-edition mystery bag is a great way to try new makeup products and a professional brush without the big price tag! If you’re looking for the perfect professional makeup brush and ingredient-conscious, luxe-feeling makeup obsessions that are highly pigmented and look great on all skin tones, this is the value set for you. High-quality, full-size eye, lip, and face items that are practical, on-trend and always cruelty-free… yes, please. Don’t miss out! This beauty must-have collection, at such a low price, won’t be around long! These luxurious full-size items are designed to express your unique style. It’s our way of saying thank you to all our PUR loyalty fans. Excluded from	https://www.purcosmetics.com/standard-mystery-bag?utm_source=google_shopping	https://www.purcosmetics.com/media/catalog/product/m/y/mystery-bag-silhouette-whitebg.jpg	https://www.purcosmetics.com/media/catalog/product/m/y/mystery-bag-silhouette-orangebg.jpg	18.00 USD	 	 	in stock	0.00 lb	Pur Cosmetics	8888122	new	Pur Category > Makeup > Kits,Pur Category > Sale,Pur Category	 	 	FALSE	 	847137040741	847137040741	8888122
951746020	 	Sparkle and Shine Bright Travel Highlighter Palette + Fan Brush	Hello, gorgeous. Illuminate and spotlight your favorite features and Sparkle and Shine Bright as you define and highlight. Celebrate PÜR's sweet 16 brand anniversary and shimmer with the best of them without turning up the lights with this captivating, limited-edition 'Sweet 16' Travel Highlighter Palette + Fan Brush glow highlighter makeup set. Three good-for-your-skin, vegan highlighters seamlessly blend into various makeup looks and are packed with long-lasting, skin-loving ingredients that are flattering on all skin tones. A combination of green tea, ginseng and B vitamins work together to give you a natural-looking, multidimensional glow for a lit-from-within skin finish. The fun confetti packaging is inspired by our celebratory mood. A mini, cruelty-free fan highlighter brush with an embellished, celebratory confetti handle is included for soft, stay-put highlighter application. Take a selfie. This inclusive, travel-friendly highlighter palette is worthy of its own celebration.	https://www.purcosmetics.com/sparkle-and-shine-bright-travel-highlighter-palette-mini-fan-brush?utm_source=google_shopping	https://www.purcosmetics.com/media/catalog/product/s/p/sparkle-and-shine-bright-open-72dpi.jpg	https://www.purcosmetics.com/media/catalog/product/s/p/sparkle-and-shine-bright-closed-72dpi.jpg,https://www.purcosmetics.com/media/catalog/product/s/p/sparkle-and-shine-square-lr.jpg	15.00 USD	 	 	in stock	0.17 lb	Pur Cosmetics	951746020	new	Pur Category > Makeup > Cheeks > Highlighter,Pur Category > Makeup > Cheeks,Pur Category > Makeup > Kits	 	 	FALSE	 	847137035815	847137035815	951746020
951791120	 	Let The Good Times Roll Travel Eyeshadow Palette + Shadow Brush	Celebrate PÜR’s Sweet 16 with a party in a skincare-infused, travel-friendly eyeshadow palette. Good things do come in small packages. Small enough to fit in your clutch, powerful enough to last all night, Limited-Edition 'Sweet 16' Travel Eyeshadow Palette + Shadow Brush is your secret weapon for effortlessly keeping eyes looking flawless throughout the day and before a night out. The portable design allows the mini matte, shimmer and metallic eyeshadow palette to go wherever you do... it's a makeup palette must-have! Like all PUR products, the velvety smooth eyeshadows—in 6 on-trend, must-have creamy shades—are formulated with clean, good-for-you-skin ingredients. The fun, travel-friendly confetti packaging is inspired by our celebratory mood. A mini, cruelty-free eyeshadow brush is included for soft, stay-put application. Let the Good Times Roll!	https://www.purcosmetics.com/let-the-good-times-roll-travel-eyeshadow-palette-shadow-brush?utm_source=google_shopping	https://www.purcosmetics.com/media/catalog/product/l/e/let-the-good-times-roll-open-72dpi.jpg	https://www.purcosmetics.com/media/catalog/product/l/e/let-the-good-times-roll-closed-72dpi.jpg,https://www.purcosmetics.com/media/catalog/product/5/5/5550.jpg,https://www.purcosmetics.com/media/catalog/product/l/e/let-the-good-times-roll-arm-swatch-1.jpg,https://www.purcosmetics.com/media/catalog/product/5/4/5416.jpg	15.00 USD	 	 	in stock	0.16 lb	Pur Cosmetics	951791120	new	Pur Category > Makeup > Eyes > Eyeshadow,Pur Category > Makeup > Eyes,Pur Category > Makeup > Kits	 	 	FALSE	 	847137035822	847137035822	951791120
951470040	 	Forever Clean Gentle Cleanser	Elevate your skincare routine and be the light with this minimalist Gentle Facial Cleanser with blue light defense. A beauty must-have, Forever Clean gently lathers away dirt, excess oil and stubborn makeup with maximum foam that’s sulfate-free. The clear, vegan-friendly formula encourages a healthier-looking complexion, as it quickly breaks down unwanted daily impurities without stripping the skin of its natural oil… how refreshing! Formulated with antioxidant-rich Butterfly Bush Flower Extract, this one-step facial cleanser helps restore vital moisture and helps protect against signs of aging caused by high energy visible blue light. Aloe soothes as Energy Complex, that’s made from a signature blend of Green Tea, Ginseng and Vitamin B, delivers good-for-your-skin nutrients that are simply put: invigorating. Stay one step ahead and be confident—you’re already Out of the Blue. Forever Clean is a simple skincare step that can truly make a difference.	https://www.purcosmetics.com/forever-clean-gentle-cleanser?utm_source=google_shopping	https://www.purcosmetics.com/media/catalog/product/f/o/forever-clean-capoff-72dpi.jpg	https://www.purcosmetics.com/media/catalog/product/f/o/forever-clean-gentle-cleanser-swatch-3-72dpi.jpg,https://www.purcosmetics.com/media/catalog/product/g/c/gc_oct_purcosmetics3395.jpg	24.00 USD	 	 	in stock	0.39 lb	Pur Cosmetics	951470040	new	Pur Category > Skincare > Cleansers,Pur Category > Skincare > Vegan,Pur Category > Makeup > Shop All	 	 	FALSE	 	847137083489	847137083489	951470040
951559120	 	Out of the Blue Light Up Hydrating Lip Balm	Prep and prime lips to perfection with this Light Up Hydrating Lip Balm that conditions and seals in moisture for kissable lips all day long. Infused with soothing Vitamin E, this gorgeous shimmer, gold glitter balm appears clear on the lips for a soft, full pout that lasts. Need a quick touch-up? The packaging is perfect for on-the-go. This hydrating balm includes a sleek light up component to keep lips looking their best wherever you go. It’s a can’t live without, an everyday beauty treatment that leaves lips pampered with a healthy-looking shine.	https://www.purcosmetics.com/out-of-the-blue-light-up-hydrating-lip-balm?utm_source=google_shopping	https://www.purcosmetics.com/media/catalog/product/o/u/out-of-the-blue-light_up_lip_balm_cap_off_72dpi.jpg	https://www.purcosmetics.com/media/catalog/product/s/u/superstar-swatch-72dpi.jpg,https://www.purcosmetics.com/media/catalog/product/0/0/001_0012_12.jpg	15.00 USD	 	 	in stock	0.07 lb	Pur Cosmetics	951559120	new	Pur Category > Collections > Out of the Blue with Blue Light Defense,Pur Category > New,Pur Category > Makeup	 	 	FALSE	 	847137038519	847137038519	951559120
951470050	 	Melt Away Gel Oil Makeup Remover	End your day confidently with Melt Away Gel. This multi-action, good-for-your-skin Oil Makeup Remover helps clear away impurities and helps protect against signs of aging caused by high energy visible blue light. Formulated with hydrating, skin-conditioning Sunflower Seed, Linseed, Cherry Seed, Lemon Peel, Almond and Olive Oil, this soothing, fragrance-free facial cleanser helps rejuvenate your complexion, as it transforms from gel-to-milk to gently break down stubborn face and eye makeup without stripping the skin of its natural oils. Antioxidant-rich Energy Complex, that’s made from a signature blend of Green Tea, Ginseng and Vitamin B, delivers good-for-your-skin nutrients for a healthier-looking complexion that feels refreshed. On-the-go? No problem! The leak-free cap makes it travel-friendly and easy to clean skin without the added mess. Plus, it’s gluten free and ideal for all skin types.	https://www.purcosmetics.com/melt-away-gel-oil-makeup-remover?utm_source=google_shopping	https://www.purcosmetics.com/media/catalog/product/m/e/melt_away_gel_capon_72dpi.jpg	https://www.purcosmetics.com/media/catalog/product/m/e/melt-away--swatch-72dpi_2.jpg,https://www.purcosmetics.com/media/catalog/product/p/u/pur-day-26637_retouched_3.jpg,https://www.purcosmetics.com/media/catalog/product/p/u/pur-day-26582_retouched_3.jpg	22.00 USD	 	 	in stock	0.39 lb	Pur Cosmetics	951470050	new	Pur Category > Skincare > Vegan,Pur Category > Collections > Out of the Blue with Blue Light Defense,Pur Category > Skincare > Clean Skincare	 	 	FALSE	 	847137038496	847137038496	951470050
951470030	 	See No More Deep Pore Cleanser	Packed with good-for-your-skin ingredients, Deep Pore Facial Cleanser is uniquely formulated to deep clean and purify congested, blemish-prone skin, as it works to help fight against the skin-damaging effects caused by exposure to daily, high energy visible blue light. Powerhouse ingredients, like lactic acid and salicylic acid, gently exfoliate and clarify all skin types, as soothing peppermint oil instantly refreshes and cools the skin for an extra pampering effect that feels oh-so-good! Bask in the antioxidant-rich benefits of Energy Complex, that’s made from a signature blend of Green Tea, Ginseng and Vitamin B, to deliver much-needed nutrients to help achieve a healthier-looking complexion. The sulfate-free formula lathers into a foamy texture that leaves skin feeling refreshed and cleansed after each use. Stay one step ahead and be confident in your own skin… with See No More, you’re already Out of the Blue.	https://www.purcosmetics.com/see-no-more-deep-pore-cleanser?utm_source=google_shopping	https://www.purcosmetics.com/media/catalog/product/s/e/see-no-more_72dpi.jpg	https://www.purcosmetics.com/media/catalog/product/s/e/see-no-more-swatch-72dpi.jpg,https://www.purcosmetics.com/media/catalog/product/g/c/gc_oct_purcosmetics3969.jpg,https://www.purcosmetics.com/media/catalog/product/g/c/gc_oct_purcosmetics3578-1.jpg	24.00 USD	 	 	in stock	0.39 lb	Pur Cosmetics	951470030	new	Pur Category > Skincare > Vegan,Pur Category > Collections > Out of the Blue with Blue Light Defense,Pur Category > Skincare > Clean Skincare	 	 	FALSE	 	847137038472	847137038472	951470030
951710020	 	Out of the Blue Light Up Vanity Eyeshadow Palette	Tap into your true creative side with Out of the Blue! This Light Up Vanity Eyeshadow Palette with blue light defense is filled with 12 obsession-worthy matte and shimmer shades to help you create universally flattering eye makeup looks. Go for a subtle slay with finely-milled shimmer shades or amp up the drama with bold, buildable mattes that instantly bring depth and dimension for smokey or sultry eye looks that are sure to wow. Enriched with antioxidant-rich Energy Complex, the high-performance formulas ranging from warm, earth-toned neutrals to wearable pops of color, look beautiful on all skin tones. Plus, this eyeshadow palette is uniquely formulated to help protect against signs of aging caused by high energy visible blue light, so you can go about your day confidently! Whether you’re a boss babe heading to the office or an Instagram model looking to strut, this light up vanity component makes for easy application and eye-opening looks wherever you go.	https://www.purcosmetics.com/out-of-the-blue-light-up-vanity-eyeshadow-palette?utm_source=google_shopping	https://www.purcosmetics.com/media/catalog/product/o/u/out_of_the_blue_eyeshadow-palette-open_straight_72dpi.jpg	https://www.purcosmetics.com/media/catalog/product/o/u/out_of_the_blue_eyeshadow-palette-open_side_72dpi.jpg,https://www.purcosmetics.com/media/catalog/product/o/u/out_of_the_blue_eyeshadow-palette-swatches-300dpi-2.jpg,https://www.purcosmetics.com/media/catalog/product/s/w/swatches6624-1.jpg,https://www.purcosmetics.com/media/catalog/product/0/0/001_0005_19.jpg,https://www.purcosmetics.com/media/catalog/product/0/0/001_0010_14.jpg,https://www.purcosmetics.com/media/catalog/product/0/0/001_0001_23.jpg,https://www.purcosmetics.com/media/catalog/product/0/0/001_0010_28.jpg	32.00 USD	 	 	in stock	0.10 lb	Pur Cosmetics	951710020	new	Pur Category > Makeup > Palettes,Pur Category > Collections > Out of the Blue with Blue Light Defense,Pur Category > New	 	 	FALSE	 	847137038458	847137038458	951710020
951113140	 	Lit Mist Illuminating Setting Spray	In seconds, this Illuminating Setting Spray delivers hydration to the skin for an all-day-looking glow… it’s an instant makeup-setting pick-me-up! Lit Mist helps revitalize the look of dull, tired skin, leaving behind a light, dewy shimmer for long-wear looks with effortless radiance. This refreshing setting spray is infused with antioxidants to help protect skin against environmental stressors, such as high energy visible blue light, throughout the day. Energy Complex, that’s made from a signature blend of Green Tea, Ginseng and Vitamin B, delivers good-for-your-skin nutrients in just one spritz! A beauty must-have, this invigorating face mist is formulated with Glycerin, Coconut Acid and Safflower Seed Oil to help nourish skin. Just spray and go! Your skin will thank you.	https://www.purcosmetics.com/lit-mist-illuminating-setting-spray?utm_source=google_shopping	https://www.purcosmetics.com/media/catalog/product/l/i/lit_mist_capoff_72dpi.jpg	https://www.purcosmetics.com/media/catalog/product/g/c/gc_oct_purcosmetics3969_1.jpg	24.00 USD	 	 	in stock	0.00 lb	Pur Cosmetics	951113140	new	Pur Category > Makeup > Face,Pur Category > Skincare > Vegan,Pur Category > Makeup > Shop All	 	 	FALSE	 	847137038564	847137038564	951113140
951745090	 	Get the Perfect Selfie Kit	Get selfie-ready in 3… 2… 1… with everything you love from PÜR! This 4-piece Get The Perfect Selfie Kit has everything you need to achieve a camera-ready look in no time. Instantly moisturize, color balance, prime and illuminate skin before makeup application for the natural radiance we all desire with Mini No Filter Blurring Photography Primer. Create a picture-perfect makeup look with the full size Perfect Your Selfie Face Palette. Made with our famous silky-smooth, vegan formula, the six finely milled eyeshadows and four universally-flattering blushes easily blend for both natural and bold looks alike. The show-stopping makeup palette also helps protect against signs of aging caused by high energy visible blue light, for makeup that performs as well as it looks. Coat each individual lash with the Mini Fully Charged Mascara that is powered by magnetic technology to strengthen, thicken, lengthen and separate lashes for unparalleled performance. Complete your look with Mini Chrome	https://www.purcosmetics.com/out-of-the-blue-perfect-selfie-kit?utm_source=google_shopping	https://www.purcosmetics.com/media/catalog/product/g/e/get-the-perfect-seflie-kit-72dpi-2.jpg	https://www.purcosmetics.com/media/catalog/product/g/e/get-the-perfect-selfies-opencpt-72dpi.jpg,https://www.purcosmetics.com/media/catalog/product/g/e/get-the-perfect-selfies-closed-72dpi.jpg,https://www.purcosmetics.com/media/catalog/product/g/c/gc_oct_purcosmetics5209.jpg,https://www.purcosmetics.com/media/catalog/product/g/c/gc_oct_purcosmetics3578-1_1.jpg	28.00 USD	 	 	in stock	0.10 lb	Pur Cosmetics	951745090	new	Pur Category > Makeup > Cheeks > Blush,Pur Category > Makeup > Eyes > Eyeshadow,Pur Category > Makeup > Cheeks	 	 	FALSE	 	847137038441	847137038441	951745090
951158020	 	Precious Metals Shimmering Dry Oil Elixir	Glow, baby, glow! Elevate your skincare routine with this Shimmering Dry Oil Elixir that’s formulated with good-for-your-skin ingredients. Infused with metallic gold and rose gold flakes, Precious Metals Dry Oil Elixir will leave skin looking—and feeling—more hydrated with just a few drops. This gluten-free elixir boasts a nourishing blend of skin-conditioning Sweet Almond, Sunflower Seed, Safflower Seed and Coconut Oils, as well as Vitamin E and Squalane, which will amplify your natural glow and provide long-lasting hydration without the unwanted greasy feel or excessive shine. Rich with essential fatty acids and antioxidants, this nourishing, hydra-charged face and body oil quickly absorbs into skin to deliver the luxury and luminosity we all crave!	https://www.purcosmetics.com/precious-metals-shimmering-dry-oil-elixir?utm_source=google_shopping	https://www.purcosmetics.com/media/catalog/product/p/r/precious-metals-oil-silver-spring-19-lid-off.jpg	https://www.purcosmetics.com/media/catalog/product/p/r/precious-metals-oil-silver-spring-19-lid-on-72dpi.jpg,https://www.purcosmetics.com/media/catalog/product/p/r/precious-metals-oil-spill0724c.jpg,https://www.purcosmetics.com/media/catalog/product/g/c/gc_oct_purcosmetics3969_2.jpg	28.00 USD	 	 	in stock	0.10 lb	Pur Cosmetics	951158020	new	Pur Category > Skincare > Moisturizers,Pur Category > Skincare > Serums,Pur Category > Skincare > Vegan	 	 	FALSE	 	847137038571	847137038571	951158020
951451030	 	Limited-Edition Fully Charged Light Up Mascara	Opposites attract with this cult-favorite and editor-adored Fully Charged Mascara! Powered by innovative Magnetic Technology, this Limited-Edition Light Up Mascara features our original revolutionary "magnetic" polymer matrix formula that wraps a positively charged elastic veil around each lash to instantly lift, separate and define eyelashes for maximum, long-lasting performance. Speak volumes with one simple flutter. Fortified with a specialized blend of ingredients, this age-defying mascara helps condition and strengthen eyelashes to help prevent lash loss. Equipped with a unique, limited-edition light up component, so you can see each and every lash, this mascara is perfect for quick touch-ups on-the-go! Confidently fight the eyelash aging process as you strengthen, thicken, lengthen and separate eyelashes for gorgeous lashes that wow… because we understand that lashes aren’t only seen, they speak a language of their own.	https://www.purcosmetics.com/limited-edition-fully-charged-light-up-mascara?utm_source=google_shopping	https://www.purcosmetics.com/media/catalog/product/o/u/out-of-the-blue-fully-charged-lid-off-72dpi.jpg	https://www.purcosmetics.com/media/catalog/product/0/0/001_0013_11_1.jpg,https://www.purcosmetics.com/media/catalog/product/g/c/gc_oct_purcosmetics3920_1.jpg,https://www.purcosmetics.com/media/catalog/product/o/o/ootb-full-charge-wallpaper-crop.jpg	22.00 USD	 	 	in stock	0.94 lb	Pur Cosmetics	951451030	new	Pur Category > Makeup > Eyes > Mascara,Pur Category > Makeup > Eyes,Pur Category > Makeup > Shop All	 	 	FALSE	 	847137040444	847137040444	951451030
11827	 	Out of the Blue Light Up High Shine Lip Gloss	It’s time to pucker up to a new take on lip gloss. Lightweight and highly pigmented, the Light Up High Shine Lip Gloss utilizes gel technology to coat lips in multidimensional color that wows with intense shine for kissable lips no matter the occasion. This high-shine, antioxidant-rich gloss is uniquely formulated to help keep lips protected against visible signs of aging induced by high energy visible blue light. Available in four gorgeous shades ranging from a soft creamy matte, shimmery champagne, warm pink with gold flecks and a cool pink with silver sparkles—these glosses make the perfect neutral for any skin tone! Be confident from brunch to dinner, and everywhere in between—you’re Out of the Blue with this lip gloss. Wear each shade alone or on top of your favorite lip liner and lipstick. Just toss it in your bag and go! The light up component makes quick touch-ups a breeze. After just one application of this high shine gloss, your lips will surely thank you.	https://www.purcosmetics.com/out-of-the-blue-light-up-high-shine-lip-gloss?utm_source=google_shopping	https://www.purcosmetics.com/media/catalog/product/o/u/out-of-the-blue-light_up_lip_gloss_future_cap-off_72dpi_2.jpg	https://www.purcosmetics.com/media/catalog/product/o/u/out-of-the-blue-light_up_lip_gloss_future_cap-on_72dpi_2.jpg,https://www.purcosmetics.com/media/catalog/product/o/u/out-of-the-blue-light_up_lip_gloss_future_swatch_72dpi_2.jpg,https://www.purcosmetics.com/media/catalog/product/0/0/001_0009_15_2.jpg,https://www.purcosmetics.com/media/catalog/product/g/c/gc_oct_purcosmetics4317_2.jpg	18.00 USD	 	 	in stock	0.10 lb	Pur Cosmetics	11827	new	Pur Category > Collections > Out of the Blue with Blue Light Defense,Pur Category > New,Pur Category > Makeup	 	 	FALSE	 	 	 	11827
951559130	11827	Out of the Blue Light Up High Shine Lip Gloss in Future	It’s time to pucker up to a new take on lip gloss. This lightweight, highly pigmented Light Up High Shine Lip Gloss in Future, a shimmery frosted pink with silver flecks, utilizes gel technology to coat lips in multidimensional color that wows with intense shine for kissable lips no matter the occasion. This high-shine, antioxidant-rich gloss is uniquely formulated to help keep lips protected against visible signs of aging induced by high energy visible blue light. Be confident from brunch to dinner, and everywhere in between—you’re Out of the Blue with this lip gloss. Wear each shade alone or on top of your favorite lip liner* and lipstick. Just toss it in your bag and go! The light up component makes quick touch-ups a breeze. After just one application of this high shine gloss, your lips will surely thank you.	https://www.purcosmetics.com/out-of-the-blue-light-up-high-shine-lip-gloss?utm_source=google_shopping	https://www.purcosmetics.com/media/catalog/product/o/u/out-of-the-blue-light_up_lip_gloss_future_cap-off_72dpi.jpg	https://www.purcosmetics.com/media/catalog/product/o/u/out-of-the-blue-light_up_lip_gloss_future_cap-on_72dpi.jpg,https://www.purcosmetics.com/media/catalog/product/o/u/out-of-the-blue-light_up_lip_gloss_future_swatch_72dpi.jpg,https://www.purcosmetics.com/media/catalog/product/o/u/out-of-the-blue-collection-future-gloss.jpg,https://www.purcosmetics.com/media/catalog/product/a/s/asia-out-of-the-blue-glossfuture.jpg,https://www.purcosmetics.com/media/catalog/product/g/c/gc_oct_purcosmetics4317.jpg,https://www.purcosmetics.com/media/catalog/product/0/0/001_0009_15.jpg	18.00 USD	 	 	in stock	0.10 lb	Pur Cosmetics	951559130	new	Pur Category > Collections > Out of the Blue with Blue Light Defense,Pur Category > New,Pur Category > Makeup	 	 	FALSE	 	847137038526	847137038526	951559130
951559140	11827	Out of the Blue Light Up High Shine Lip Gloss in Goals	It’s time to pucker up to a new take on lip gloss. This lightweight, highly pigmented Light Up High Shine Lip Gloss in Goals, a shimmery champagne gold, utilizes gel technology to coat lips in multidimensional color that wows with intense shine for kissable lips no matter the occasion. This high-shine, antioxidant-rich gloss is uniquely formulated to help keep lips protected against visible signs of aging induced by high energy visible blue light. Be confident from brunch to dinner, and everywhere in between—you’re Out of the Blue with this lip gloss. Wear each shade alone or on top of your favorite lip liner* and lipstick. Just toss it in your bag and go! The light up component makes quick touch-ups a breeze. After just one application of this high shine gloss, your lips will surely thank you.	https://www.purcosmetics.com/out-of-the-blue-light-up-high-shine-lip-gloss?utm_source=google_shopping	https://www.purcosmetics.com/media/catalog/product/o/u/out-of-the-blue-light_up_lip_gloss_goals_cap-off_72dpi.jpg	https://www.purcosmetics.com/media/catalog/product/o/u/out-of-the-blue-light_up_lip_gloss_goals_cap-on_72dpi.jpg,https://www.purcosmetics.com/media/catalog/product/o/u/out-of-the-blue-light_up_lip_gloss_goals_swatch_72dpi.jpg,https://www.purcosmetics.com/media/catalog/product/o/u/out-of-the-blue-collection-goals-gloss.jpg,https://www.purcosmetics.com/media/catalog/product/a/s/asia-out-of-the-blue-glossgoals.jpg,https://www.purcosmetics.com/media/catalog/product/g/c/gc_oct_purcosmetics4317_1.jpg,https://www.purcosmetics.com/media/catalog/product/0/0/001_0009_15_1.jpg	18.00 USD	 	 	in stock	0.10 lb	Pur Cosmetics	951559140	new	Pur Category > Collections > Out of the Blue with Blue Light Defense,Pur Category > New,Pur Category > Makeup	 	 	FALSE	 	847137038533	847137038533	951559140
951559150	11827	Out of the Blue Light Up High Shine Lip Gloss in Focused	It’s time to pucker up to a new take on lip gloss. This lightweight, highly pigmented Light Up High Shine Lip Gloss in Focused, a warm shimmery pink with gold flecks, utilizes gel technology to coat lips in multidimensional color that wows with intense shine for kissable lips no matter the occasion. This high-shine, antioxidant-rich gloss is uniquely formulated to help keep lips protected against visible signs of aging induced by high energy visible blue light. Be confident from brunch to dinner, and everywhere in between—you’re Out of the Blue with this lip gloss. Wear each shade alone or on top of your favorite lip liner* and lipstick. Just toss it in your bag and go! The light up component makes quick touch-ups a breeze. After just one application of this high shine gloss, your lips will surely thank you.	https://www.purcosmetics.com/out-of-the-blue-light-up-high-shine-lip-gloss?utm_source=google_shopping	https://www.purcosmetics.com/media/catalog/product/o/u/out-of-the-blue-light_up_lip_gloss_focus_cap-off_72dpi.jpg	https://www.purcosmetics.com/media/catalog/product/o/u/out-of-the-blue-light_up_lip_gloss_focus_cap-on_72dpi.jpg,https://www.purcosmetics.com/media/catalog/product/o/u/out-of-the-blue-light_up_lip_gloss_focus_swatch_72dpi.jpg,https://www.purcosmetics.com/media/catalog/product/o/u/out-of-the-blue-collection-focused-gloss.jpg,https://www.purcosmetics.com/media/catalog/product/a/s/asia-out-of-the-blue-glossfocused.jpg,https://www.purcosmetics.com/media/catalog/product/g/c/gc_oct_purcosmetics4317_1_1.jpg,https://www.purcosmetics.com/media/catalog/product/0/0/001_0009_15_1_1.jpg	18.00 USD	 	 	in stock	0.10 lb	Pur Cosmetics	951559150	new	Pur Category > Collections > Out of the Blue with Blue Light Defense,Pur Category > New,Pur Category > Makeup	 	 	FALSE	 	847137038540	847137038540	951559150
951559160	11827	Out of the Blue Light Up High Shine Lip Gloss in Dreams	It’s time to pucker up to a new take on lip gloss. This lightweight, highly pigmented Light Up High Shine Lip Gloss in Dreams, a creamy matte in soft coral pink, utilizes gel technology to coat lips in multidimensional color that wows with intense shine for kissable lips no matter the occasion. This high-shine, antioxidant-rich gloss is uniquely formulated to help keep lips protected against visible signs of aging induced by high energy visible blue light. Be confident from brunch to dinner, and everywhere in between—you’re Out of the Blue with this lip gloss. Wear each shade alone or on top of your favorite lip liner* and lipstick. Just toss it in your bag and go! The light up component makes quick touch-ups a breeze. After just one application of this high shine gloss, your lips will surely thank you.	https://www.purcosmetics.com/out-of-the-blue-light-up-high-shine-lip-gloss?utm_source=google_shopping	https://www.purcosmetics.com/media/catalog/product/l/i/light_up_lip_gloss_dreams_cap-off_72dpi.jpg	https://www.purcosmetics.com/media/catalog/product/l/i/light_up_lip_gloss_dreams_cap-on_72dpi.jpg,https://www.purcosmetics.com/media/catalog/product/l/i/light_up_lip_gloss_dreams_swatch_72dpi.jpg,https://www.purcosmetics.com/media/catalog/product/o/u/out-of-the-blue-collection-dreams-gloss.jpg,https://www.purcosmetics.com/media/catalog/product/a/s/asia-out-of-the-blue-gloss-dreams.jpg,https://www.purcosmetics.com/media/catalog/product/g/c/gc_oct_purcosmetics4317_1_1_1.jpg,https://www.purcosmetics.com/media/catalog/product/0/0/001_0009_15_1_1_1.jpg	18.00 USD	 	 	in stock	0.10 lb	Pur Cosmetics	951559160	new	Pur Category > Collections > Out of the Blue with Blue Light Defense,Pur Category > New,Pur Category > Makeup	 	 	FALSE	 	847137038557	847137038557	951559160
11828	 	Out of the Blue Vanity Blush Palette	A coveted, radiant-looking complexion is easily yours, thanks to this Light Up Vanity Blush Palette. This unique 3-piece complexion trio is comprised of two luminous blush shades and a radiant highlighter that seamlessly blend together to instantly add a flawless pop of color to any skin tone. Enriched with age-defying Ceretin® Complex and antioxidant-rich Energy Complex, the micronized pigments easily blend into the skin for a natural flush of color that complements any makeup look. Plus, it’s uniquely formulated to help protect against signs of aging caused by high energy visible blue light, so you can go about your day confidently! Whether you’re keeping it simple by day or glamming it up for night, this makeup palette has everything you need to add depth and dimension to your beautiful cheekbones. Equipped with an innovative, light up component, this travel-friendly blush and highlighter trio makes for easy, on-the-go application to transform your looks from day to night!	https://www.purcosmetics.com/out-of-the-blue-vanity-blush-palette?utm_source=google_shopping	https://www.purcosmetics.com/media/catalog/product/o/u/out-of-the-blue-blush-trio_palette_light-open_straight_72dpi_1.jpg	https://www.purcosmetics.com/media/catalog/product/o/u/out-of-the-blue-blush-trio_palette_light-open_side_72dpi_1.jpg,https://www.purcosmetics.com/media/catalog/product/o/u/out-of-the-blue-blush-trio_palette_light-swatch_72dpi_1.jpg	24.00 USD	 	 	in stock	0.17 lb	Pur Cosmetics	11828	new	Pur Category > Makeup > Palettes,Pur Category > Collections > Out of the Blue with Blue Light Defense,Pur Category > New	 	 	FALSE	 	 	 	11828
951334150	11828	Out of the Blue Vanity Blush Palette in Beam of Light	A coveted, radiant-looking complexion is easily yours, thanks to this Light Up Vanity Blush Palette. This unique 3-piece complexion trio is comprised of two luminous blush shades and a radiant highlighter that seamlessly blend together to instantly add a flawless pop of color to any skin tone. Enriched with age-defying Ceretin® Complex and antioxidant-rich Energy Complex, the micronized pigments easily blend into the skin for a natural flush of color that complements any makeup look. Plus, it’s uniquely formulated to help protect against signs of aging caused by high energy visible blue light, so you can go about your day confidently! Whether you’re keeping it simple by day or glamming it up for night, this makeup palette has everything you need to add depth and dimension to your beautiful cheekbones. Equipped with an innovative, light up component, this travel-friendly blush and highlighter trio makes for easy, on-the-go application to transform your looks from day to night! *sold	https://www.purcosmetics.com/out-of-the-blue-vanity-blush-palette?utm_source=google_shopping	https://www.purcosmetics.com/media/catalog/product/o/u/out-of-the-blue-blush-trio_palette_light-open_straight_72dpi.jpg	https://www.purcosmetics.com/media/catalog/product/o/u/out-of-the-blue-blush-trio_palette_light-open_side_72dpi.jpg,https://www.purcosmetics.com/media/catalog/product/o/u/out-of-the-blue-blush-trio_palette_light-swatch_72dpi.jpg,https://www.purcosmetics.com/media/catalog/product/o/u/out-of-the-blue-blushes-staggered-c.jpg	24.00 USD	 	 	in stock	0.17 lb	Pur Cosmetics	951334150	new	Pur Category > Makeup > Palettes,Pur Category > Collections > Out of the Blue with Blue Light Defense,Pur Category > New	 	 	FALSE	 	847137038502	847137038502	951334150
951334160	11828	Out of the Blue Light Up Vanity Blush Palette in Ray of Light	A coveted, radiant-looking complexion is easily yours, thanks to this Light Up Vanity Blush Palette in Ray of Light. This unique 3-piece complexion trio is comprised of two luminous blush shades and a radiant highlighter that seamlessly blend together to instantly add a flawless pop of color to any skin tone. Enriched with age-defying Ceretin® Complex and antioxidant-rich Energy Complex, the micronized pigments easily blend into the skin for a natural flush of color that complements any makeup look. Plus, it’s uniquely formulated to help protect against signs of aging caused by high energy visible blue light, so you can go about your day confidently! Whether you’re keeping it simple by day or glamming it up for night, this makeup palette has everything you need to add depth and dimension to your beautiful cheekbones. Equipped with an innovative, light up component, this travel-friendly blush and highlighter trio makes for easy, on-the-go application to transform your looks from day to	https://www.purcosmetics.com/out-of-the-blue-vanity-blush-palette?utm_source=google_shopping	https://www.purcosmetics.com/media/catalog/product/o/u/out-of-the-blue-blush-trio_palette_dark-open_straight_72dpi.jpg	https://www.purcosmetics.com/media/catalog/product/o/u/out-of-the-blue-blush-trio_palette_dark-open_side_72dpi.jpg,https://www.purcosmetics.com/media/catalog/product/o/u/out-of-the-blue-blush-trio_palette_dark-swatch_72dpi.jpg,https://www.purcosmetics.com/media/catalog/product/o/u/out-of-the-blue-blushes-staggered-c_1.jpg,https://www.purcosmetics.com/media/catalog/product/o/u/out-of-the-blue-blush-closeup-brighter_1.jpg	24.00 USD	 	 	in stock	0.17 lb	Pur Cosmetics	951334160	new	Pur Category > Makeup > Palettes,Pur Category > Collections > Out of the Blue with Blue Light Defense,Pur Category > New	 	 	FALSE	 	847137038588	847137038588	951334160